
AVRASM ver. 2.2.8  C:\Users\malon\OneDrive\Documents\Spring 2025\ECE 412\Lab 2 2025\Lab2-assembly\Lab2-assembly\main.asm Mon Feb 17 14:18:55 2025

[builtin](2): Including file 'C:/Program Files (x86)\Atmel\Studio\7.0\Packs\atmel\ATmega_DFP\1.7.374\avrasm\inc\m328PBdef.inc'
[builtin](2): Including file 'C:/Program Files (x86)\Atmel\Studio\7.0\Packs\atmel\ATmega_DFP\1.7.374\avrasm\inc\m328PBdef.inc'
                                 
                                 ;  
                                 
                                 
                                 ;*************************************************************************
                                 ;* A P P L I C A T I O N   N O T E   F O R   T H E   A V R   F A M I L Y
                                 ;*
                                 ;* Number            : AVR000
                                 ;* File Name         : m328PBdef.inc
                                 ;* Title             : Register/Bit Definitions for the ATmega328PB
                                 ;* Created           : 2021-07-13 10:39
                                 ;* Version           : 1.00
                                 ;* Support e-mail    : avr@atmel.com
                                 ;* Target MCU        : ATmega328PB
                                 ;*
                                 ;* DESCRIPTION
                                 ;* When including this file in the assembly program file, all I/O register
                                 ;* names and I/O register bit names appearing in the data book can be used.
                                 ;* In addition, the six registers forming the three data pointers X, Y and
                                 ;* Z have been assigned names XL - ZH. Highest RAM address for Internal
                                 ;* SRAM is also defined
                                 ;*
                                 ;*************************************************************************
                                 
                                 #ifndef _M328PBDEF_INC_
                                 #define _M328PBDEF_INC_
                                 
                                 
                                 #pragma partinc 0
                                 
                                 ; ***** SPECIFY DEVICE ***************************************************
                                 .device	ATmega328PB
                                 #pragma AVRPART ADMIN PART_NAME ATmega328PB
                                 .equ	SIGNATURE_000	= 0x1E
                                 .equ	SIGNATURE_001	= 0x95
                                 .equ	SIGNATURE_002	= 0x16
                                 
                                 #pragma AVRPART CORE CORE_VERSION V2E
                                 
                                 
                                 ; ***** I/O REGISTER DEFINITIONS *****************************************
                                 ; NOTE:
                                 ; Definitions marked "MEMORY MAPPED" are extended I/O ports
                                 ; and cannot be used with IN/OUT instructions
                                 .equ	TWAMR1	= 0xDD ; MEMORY MAPPED
                                 .equ	TWCR1	= 0xDC ; MEMORY MAPPED
                                 .equ	TWDR1	= 0xDB ; MEMORY MAPPED
                                 .equ	TWAR1	= 0xDA ; MEMORY MAPPED
                                 .equ	TWSR1	= 0xD9 ; MEMORY MAPPED
                                 .equ	TWBR1	= 0xD8 ; MEMORY MAPPED
                                 .equ	UDR1	= 0xCE ; MEMORY MAPPED
                                 .equ	UBRR1H	= 0xCD ; MEMORY MAPPED
                                 .equ	UBRR1L	= 0xCC ; MEMORY MAPPED
                                 .equ	UCSR1D	= 0xCB ; MEMORY MAPPED
                                 .equ	UCSR1C	= 0xCA ; MEMORY MAPPED
                                 .equ	UCSR1B	= 0xC9 ; MEMORY MAPPED
                                 .equ	UCSR1A	= 0xC8 ; MEMORY MAPPED
                                 .equ	UDR0	= 0xC6 ; MEMORY MAPPED
                                 .equ	UBRR0H	= 0xC5 ; MEMORY MAPPED
                                 .equ	UBRR0L	= 0xC4 ; MEMORY MAPPED
                                 .equ	UCSR0D	= 0xC3 ; MEMORY MAPPED
                                 .equ	UCSR0C	= 0xC2 ; MEMORY MAPPED
                                 .equ	UCSR0B	= 0xC1 ; MEMORY MAPPED
                                 .equ	UCSR0A	= 0xC0 ; MEMORY MAPPED
                                 .equ	TWAMR0	= 0xBD ; MEMORY MAPPED
                                 .equ	TWCR0	= 0xBC ; MEMORY MAPPED
                                 .equ	TWDR0	= 0xBB ; MEMORY MAPPED
                                 .equ	TWAR0	= 0xBA ; MEMORY MAPPED
                                 .equ	TWSR0	= 0xB9 ; MEMORY MAPPED
                                 .equ	TWBR0	= 0xB8 ; MEMORY MAPPED
                                 .equ	ASSR	= 0xB6 ; MEMORY MAPPED
                                 .equ	OCR2B	= 0xB4 ; MEMORY MAPPED
                                 .equ	OCR2A	= 0xB3 ; MEMORY MAPPED
                                 .equ	TCNT2	= 0xB2 ; MEMORY MAPPED
                                 .equ	TCCR2B	= 0xB1 ; MEMORY MAPPED
                                 .equ	TCCR2A	= 0xB0 ; MEMORY MAPPED
                                 .equ	SPDR1	= 0xAE ; MEMORY MAPPED
                                 .equ	SPSR1	= 0xAD ; MEMORY MAPPED
                                 .equ	SPCR1	= 0xAC ; MEMORY MAPPED
                                 .equ	OCR4BH	= 0xAB ; MEMORY MAPPED
                                 .equ	OCR4BL	= 0xAA ; MEMORY MAPPED
                                 .equ	OCR4AH	= 0xA9 ; MEMORY MAPPED
                                 .equ	OCR4AL	= 0xA8 ; MEMORY MAPPED
                                 .equ	ICR4H	= 0xA7 ; MEMORY MAPPED
                                 .equ	ICR4L	= 0xA6 ; MEMORY MAPPED
                                 .equ	TCNT4H	= 0xA5 ; MEMORY MAPPED
                                 .equ	TCNT4L	= 0xA4 ; MEMORY MAPPED
                                 .equ	TCCR4C	= 0xA2 ; MEMORY MAPPED
                                 .equ	TCCR4B	= 0xA1 ; MEMORY MAPPED
                                 .equ	TCCR4A	= 0xA0 ; MEMORY MAPPED
                                 .equ	OCR3BH	= 0x9B ; MEMORY MAPPED
                                 .equ	OCR3BL	= 0x9A ; MEMORY MAPPED
                                 .equ	OCR3AH	= 0x99 ; MEMORY MAPPED
                                 .equ	OCR3AL	= 0x98 ; MEMORY MAPPED
                                 .equ	ICR3H	= 0x97 ; MEMORY MAPPED
                                 .equ	ICR3L	= 0x96 ; MEMORY MAPPED
                                 .equ	TCNT3H	= 0x95 ; MEMORY MAPPED
                                 .equ	TCNT3L	= 0x94 ; MEMORY MAPPED
                                 .equ	TCCR3C	= 0x92 ; MEMORY MAPPED
                                 .equ	TCCR3B	= 0x91 ; MEMORY MAPPED
                                 .equ	TCCR3A	= 0x90 ; MEMORY MAPPED
                                 .equ	OCR1BH	= 0x8B ; MEMORY MAPPED
                                 .equ	OCR1BL	= 0x8A ; MEMORY MAPPED
                                 .equ	OCR1AH	= 0x89 ; MEMORY MAPPED
                                 .equ	OCR1AL	= 0x88 ; MEMORY MAPPED
                                 .equ	ICR1H	= 0x87 ; MEMORY MAPPED
                                 .equ	ICR1L	= 0x86 ; MEMORY MAPPED
                                 .equ	TCNT1H	= 0x85 ; MEMORY MAPPED
                                 .equ	TCNT1L	= 0x84 ; MEMORY MAPPED
                                 .equ	TCCR1C	= 0x82 ; MEMORY MAPPED
                                 .equ	TCCR1B	= 0x81 ; MEMORY MAPPED
                                 .equ	TCCR1A	= 0x80 ; MEMORY MAPPED
                                 .equ	DIDR1	= 0x7F ; MEMORY MAPPED
                                 .equ	DIDR0	= 0x7E ; MEMORY MAPPED
                                 .equ	ADMUX	= 0x7C ; MEMORY MAPPED
                                 .equ	ADCSRB	= 0x7B ; MEMORY MAPPED
                                 .equ	ADCSRA	= 0x7A ; MEMORY MAPPED
                                 .equ	ADCH	= 0x79 ; MEMORY MAPPED
                                 .equ	ADCL	= 0x78 ; MEMORY MAPPED
                                 .equ	PCMSK3	= 0x73 ; MEMORY MAPPED
                                 .equ	TIMSK4	= 0x72 ; MEMORY MAPPED
                                 .equ	TIMSK3	= 0x71 ; MEMORY MAPPED
                                 .equ	TIMSK2	= 0x70 ; MEMORY MAPPED
                                 .equ	TIMSK1	= 0x6F ; MEMORY MAPPED
                                 .equ	TIMSK0	= 0x6E ; MEMORY MAPPED
                                 .equ	PCMSK2	= 0x6D ; MEMORY MAPPED
                                 .equ	PCMSK1	= 0x6C ; MEMORY MAPPED
                                 .equ	PCMSK0	= 0x6B ; MEMORY MAPPED
                                 .equ	EICRA	= 0x69 ; MEMORY MAPPED
                                 .equ	PCICR	= 0x68 ; MEMORY MAPPED
                                 .equ	OSCCAL	= 0x66 ; MEMORY MAPPED
                                 .equ	PRR1	= 0x65 ; MEMORY MAPPED
                                 .equ	PRR0	= 0x64 ; MEMORY MAPPED
                                 .equ	XFDCSR	= 0x62 ; MEMORY MAPPED
                                 .equ	CLKPR	= 0x61 ; MEMORY MAPPED
                                 .equ	WDTCSR	= 0x60 ; MEMORY MAPPED
                                 .equ	SREG	= 0x3F ; 
                                 .equ	SPH	= 0x3E ; 
                                 .equ	SPL	= 0x3D ; 
                                 .equ	SPMCSR	= 0x37 ; 
                                 .equ	MCUCR	= 0x35 ; 
                                 .equ	MCUSR	= 0x34 ; 
                                 .equ	SMCR	= 0x33 ; 
                                 .equ	ACSRA	= 0x30 ; 
                                 .equ	ACSR	= 0x30 ; 
                                 .equ	ACSRB	= 0x2F ; 
                                 .equ	SPDR0	= 0x2E ; 
                                 .equ	SPSR0	= 0x2D ; 
                                 .equ	SPCR0	= 0x2C ; 
                                 .equ	GPIOR2	= 0x2B ; 
                                 .equ	GPIOR1	= 0x2A ; 
                                 .equ	OCR0B	= 0x28 ; 
                                 .equ	OCR0A	= 0x27 ; 
                                 .equ	TCNT0	= 0x26 ; 
                                 .equ	TCCR0B	= 0x25 ; 
                                 .equ	TCCR0A	= 0x24 ; 
                                 .equ	GTCCR	= 0x23 ; 
                                 .equ	EEARH	= 0x22 ; 
                                 .equ	EEARL	= 0x21 ; 
                                 .equ	EEDR	= 0x20 ; 
                                 .equ	EECR	= 0x1F ; 
                                 .equ	GPIOR0	= 0x1E ; 
                                 .equ	EIMSK	= 0x1D ; 
                                 .equ	EIFR	= 0x1C ; 
                                 .equ	PCIFR	= 0x1B ; 
                                 .equ	TIFR4	= 0x19 ; 
                                 .equ	TIFR3	= 0x18 ; 
                                 .equ	TIFR2	= 0x17 ; 
                                 .equ	TIFR1	= 0x16 ; 
                                 .equ	TIFR0	= 0x15 ; 
                                 .equ	PORTE	= 0x0E ; 
                                 .equ	DDRE	= 0x0D ; 
                                 .equ	PINE	= 0x0C ; 
                                 .equ	PORTD	= 0x0B ; 
                                 .equ	DDRD	= 0x0A ; 
                                 .equ	PIND	= 0x09 ; 
                                 .equ	PORTC	= 0x08 ; 
                                 .equ	DDRC	= 0x07 ; 
                                 .equ	PINC	= 0x06 ; 
                                 .equ	PORTB	= 0x05 ; 
                                 .equ	DDRB	= 0x04 ; 
                                 .equ	PINB	= 0x03 ; 
                                 
                                 
                                 ; ***** BIT DEFINITIONS **************************************************
                                 
                                 ; ***** USART0 *****************
                                 ; UDR0 - USART I/O Data Register 0
                                 .equ	UDR00	= 0 ; USART I/O Data Register 0 Bit 0
                                 .equ	UDR01	= 1 ; USART I/O Data Register 0 Bit 1
                                 .equ	UDR02	= 2 ; USART I/O Data Register 0 Bit 2
                                 .equ	UDR03	= 3 ; USART I/O Data Register 0 Bit 3
                                 .equ	UDR04	= 4 ; USART I/O Data Register 0 Bit 4
                                 .equ	UDR05	= 5 ; USART I/O Data Register 0 Bit 5
                                 .equ	UDR06	= 6 ; USART I/O Data Register 0 Bit 6
                                 .equ	UDR07	= 7 ; USART I/O Data Register 0 Bit 7
                                 
                                 ; UCSR0A - USART Control and Status Register A
                                 .equ	MPCM0	= 0 ; Multi-processor Communication Mode
                                 .equ	U2X0	= 1 ; Double the USART transmission speed
                                 .equ	UPE0	= 2 ; Parity Error
                                 .equ	DOR0	= 3 ; Data overRun
                                 .equ	FE0	= 4 ; Framing Error
                                 .equ	UDRE0	= 5 ; USART Data Register Empty
                                 .equ	TXC0	= 6 ; USART Transmitt Complete
                                 .equ	RXC0	= 7 ; USART Receive Complete
                                 
                                 ; UCSR0B - USART Control and Status Register B
                                 .equ	TXB80	= 0 ; Transmit Data Bit 8
                                 .equ	RXB80	= 1 ; Receive Data Bit 8
                                 .equ	UCSZ02	= 2 ; Character Size - together with UCSZ0 in UCSR0C
                                 .equ	TXEN0	= 3 ; Transmitter Enable
                                 .equ	RXEN0	= 4 ; Receiver Enable
                                 .equ	UDRIE0	= 5 ; USART Data register Empty Interrupt Enable
                                 .equ	TXCIE0	= 6 ; TX Complete Interrupt Enable
                                 .equ	RXCIE0	= 7 ; RX Complete Interrupt Enable
                                 
                                 ; UCSR0C - USART Control and Status Register C
                                 .equ	UCPOL0	= 0 ; Clock Polarity
                                 .equ	UCSZ00	= 1 ; Character Size - together with UCSZ2 in UCSR0B
                                 .equ	UCSZ01	= 2 ; Character Size - together with UCSZ2 in UCSR0B
                                 .equ	USBS0	= 3 ; Stop Bit Select
                                 .equ	UPM00	= 4 ; Parity Mode Bits
                                 .equ	UPM01	= 5 ; Parity Mode Bits
                                 .equ	UMSEL00	= 6 ; USART Mode Select
                                 .equ	UMSEL01	= 7 ; USART Mode Select
                                 
                                 ; UCSR0D - USART Control and Status Register D
                                 .equ	SFDE	= 5 ; Start frame detection enable
                                 .equ	RXS	= 6 ; USART RX Start
                                 .equ	RXSIE	= 7 ; USART RX Start Interrupt Enable
                                 
                                 ; UBRR0 - USART Baud Rate Register Bytes
                                 .equ	UBRR0H0	= 0 ; USART Baud Rate Register Bytes High Bit 8
                                 .equ	UBRR0H1	= 1 ; USART Baud Rate Register Bytes High Bit 9
                                 .equ	UBRR0H2	= 2 ; USART Baud Rate Register Bytes High Bit 10
                                 .equ	UBRR0H3	= 3 ; USART Baud Rate Register Bytes High Bit 11
                                 
                                 .equ	UBRR0L0	= 0 ; USART Baud Rate Register Bytes Low Bit 0
                                 .equ	UBRR0L1	= 1 ; USART Baud Rate Register Bytes Low Bit 1
                                 .equ	UBRR0L2	= 2 ; USART Baud Rate Register Bytes Low Bit 2
                                 .equ	UBRR0L3	= 3 ; USART Baud Rate Register Bytes Low Bit 3
                                 .equ	UBRR0L4	= 4 ; USART Baud Rate Register Bytes Low Bit 4
                                 .equ	UBRR0L5	= 5 ; USART Baud Rate Register Bytes Low Bit 5
                                 .equ	UBRR0L6	= 6 ; USART Baud Rate Register Bytes Low Bit 6
                                 .equ	UBRR0L7	= 7 ; USART Baud Rate Register Bytes Low Bit 7
                                 
                                 
                                 ; ***** USART1 *****************
                                 ; UDR1 - USART I/O Data Register
                                 .equ	UDR10	= 0 ; USART I/O Data Register Bit 0
                                 .equ	UDR11	= 1 ; USART I/O Data Register Bit 1
                                 .equ	UDR12	= 2 ; USART I/O Data Register Bit 2
                                 .equ	UDR13	= 3 ; USART I/O Data Register Bit 3
                                 .equ	UDR14	= 4 ; USART I/O Data Register Bit 4
                                 .equ	UDR15	= 5 ; USART I/O Data Register Bit 5
                                 .equ	UDR16	= 6 ; USART I/O Data Register Bit 6
                                 .equ	UDR17	= 7 ; USART I/O Data Register Bit 7
                                 
                                 ; UCSR1A - USART Control and Status Register A
                                 .equ	MPCM1	= 0 ; Multi-processor Communication Mode
                                 .equ	U2X1	= 1 ; Double the USART transmission speed
                                 .equ	UPE1	= 2 ; Parity Error
                                 .equ	DOR1	= 3 ; Data overRun
                                 .equ	FE1	= 4 ; Framing Error
                                 .equ	UDRE1	= 5 ; USART Data Register Empty
                                 .equ	TXC1	= 6 ; USART Transmitt Complete
                                 .equ	RXC1	= 7 ; USART Receive Complete
                                 
                                 ; UCSR1B - USART Control and Status Register B
                                 .equ	TXB81	= 0 ; Transmit Data Bit 8
                                 .equ	RXB81	= 1 ; Receive Data Bit 8
                                 .equ	UCSZ12	= 2 ; Character Size - together with UCSZ0 in UCSR1C
                                 .equ	TXEN1	= 3 ; Transmitter Enable
                                 .equ	RXEN1	= 4 ; Receiver Enable
                                 .equ	UDRIE1	= 5 ; USART Data register Empty Interrupt Enable
                                 .equ	TXCIE1	= 6 ; TX Complete Interrupt Enable
                                 .equ	RXCIE1	= 7 ; RX Complete Interrupt Enable
                                 
                                 ; UCSR1C - USART Control and Status Register C
                                 .equ	UCPOL1	= 0 ; Clock Polarity
                                 .equ	UCSZ10	= 1 ; Character Size - together with UCSZ12 in UCSR1B
                                 .equ	UCSZ11	= 2 ; Character Size - together with UCSZ12 in UCSR1B
                                 .equ	USBS1	= 3 ; Stop Bit Select
                                 .equ	UPM10	= 4 ; Parity Mode Bits
                                 .equ	UPM11	= 5 ; Parity Mode Bits
                                 .equ	UMSEL10	= 6 ; USART Mode Select
                                 .equ	UMSEL11	= 7 ; USART Mode Select
                                 
                                 ; UCSR1D - USART Control and Status Register D
                                 .equ	SFDE1	= 5 ; Start frame detection enable
                                 .equ	RXS1	= 6 ; USART RX Start
                                 .equ	RXSIE1	= 7 ; USART RX Start Interrupt Enable
                                 
                                 ; UBRR1 - USART Baud Rate Register Bytes
                                 .equ	UBRR1H0	= 0 ; USART Baud Rate Register Bytes High Bit 8
                                 .equ	UBRR1H1	= 1 ; USART Baud Rate Register Bytes High Bit 9
                                 .equ	UBRR1H2	= 2 ; USART Baud Rate Register Bytes High Bit 10
                                 .equ	UBRR1H3	= 3 ; USART Baud Rate Register Bytes High Bit 11
                                 
                                 .equ	UBRR1L0	= 0 ; USART Baud Rate Register Bytes Low Bit 0
                                 .equ	UBRR1L1	= 1 ; USART Baud Rate Register Bytes Low Bit 1
                                 .equ	UBRR1L2	= 2 ; USART Baud Rate Register Bytes Low Bit 2
                                 .equ	UBRR1L3	= 3 ; USART Baud Rate Register Bytes Low Bit 3
                                 .equ	UBRR1L4	= 4 ; USART Baud Rate Register Bytes Low Bit 4
                                 .equ	UBRR1L5	= 5 ; USART Baud Rate Register Bytes Low Bit 5
                                 .equ	UBRR1L6	= 6 ; USART Baud Rate Register Bytes Low Bit 6
                                 .equ	UBRR1L7	= 7 ; USART Baud Rate Register Bytes Low Bit 7
                                 
                                 
                                 ; ***** TWI0 *****************
                                 ; TWAMR0 - TWI (Slave) Address Mask Register
                                 .equ	TWAM0	= 1 ; 
                                 .equ	TWAM1	= 2 ; 
                                 .equ	TWAM2	= 3 ; 
                                 .equ	TWAM3	= 4 ; 
                                 .equ	TWAM4	= 5 ; 
                                 .equ	TWAM5	= 6 ; 
                                 .equ	TWAM6	= 7 ; 
                                 
                                 ; TWBR0 - TWI Bit Rate register
                                 .equ	TWBR00	= 0 ; TWI Bit Rate register Bit 0
                                 .equ	TWBR01	= 1 ; TWI Bit Rate register Bit 1
                                 .equ	TWBR02	= 2 ; TWI Bit Rate register Bit 2
                                 .equ	TWBR03	= 3 ; TWI Bit Rate register Bit 3
                                 .equ	TWBR04	= 4 ; TWI Bit Rate register Bit 4
                                 .equ	TWBR05	= 5 ; TWI Bit Rate register Bit 5
                                 .equ	TWBR06	= 6 ; TWI Bit Rate register Bit 6
                                 .equ	TWBR07	= 7 ; TWI Bit Rate register Bit 7
                                 
                                 ; TWCR0 - TWI Control Register
                                 .equ	TWIE	= 0 ; TWI Interrupt Enable
                                 .equ	TWEN	= 2 ; TWI Enable Bit
                                 .equ	TWWC	= 3 ; TWI Write Collition Flag
                                 .equ	TWSTO	= 4 ; TWI Stop Condition Bit
                                 .equ	TWSTA	= 5 ; TWI Start Condition Bit
                                 .equ	TWEA	= 6 ; TWI Enable Acknowledge Bit
                                 .equ	TWINT	= 7 ; TWI Interrupt Flag
                                 
                                 ; TWSR0 - TWI Status Register
                                 .equ	TWPS0	= 0 ; TWI Prescaler
                                 .equ	TWPS1	= 1 ; TWI Prescaler
                                 .equ	TWS3	= 3 ; TWI Status
                                 .equ	TWS4	= 4 ; TWI Status
                                 .equ	TWS5	= 5 ; TWI Status
                                 .equ	TWS6	= 6 ; TWI Status
                                 .equ	TWS7	= 7 ; TWI Status
                                 
                                 ; TWDR0 - TWI Data register
                                 .equ	TWDR00	= 0 ; TWI Data register Bit 0
                                 .equ	TWDR01	= 1 ; TWI Data register Bit 1
                                 .equ	TWDR02	= 2 ; TWI Data register Bit 2
                                 .equ	TWDR03	= 3 ; TWI Data register Bit 3
                                 .equ	TWDR04	= 4 ; TWI Data register Bit 4
                                 .equ	TWDR05	= 5 ; TWI Data register Bit 5
                                 .equ	TWDR06	= 6 ; TWI Data register Bit 6
                                 .equ	TWDR07	= 7 ; TWI Data register Bit 7
                                 
                                 ; TWAR0 - TWI (Slave) Address register
                                 .equ	TWGCE	= 0 ; TWI General Call Recognition Enable Bit
                                 .equ	TWA0	= 1 ; TWI (Slave) Address register Bits
                                 .equ	TWA1	= 2 ; TWI (Slave) Address register Bits
                                 .equ	TWA2	= 3 ; TWI (Slave) Address register Bits
                                 .equ	TWA3	= 4 ; TWI (Slave) Address register Bits
                                 .equ	TWA4	= 5 ; TWI (Slave) Address register Bits
                                 .equ	TWA5	= 6 ; TWI (Slave) Address register Bits
                                 .equ	TWA6	= 7 ; TWI (Slave) Address register Bits
                                 
                                 
                                 ; ***** TWI1 *****************
                                 ; TWAMR1 - TWI (Slave) Address Mask Register
                                 .equ	TWAM10	= 1 ; 
                                 .equ	TWAM11	= 2 ; 
                                 .equ	TWAM12	= 3 ; 
                                 .equ	TWAM13	= 4 ; 
                                 .equ	TWAM14	= 5 ; 
                                 .equ	TWAM15	= 6 ; 
                                 .equ	TWAM16	= 7 ; 
                                 
                                 ; TWBR1 - TWI Bit Rate register
                                 .equ	TWBR10	= 0 ; TWI Bit Rate register Bit 0
                                 .equ	TWBR11	= 1 ; TWI Bit Rate register Bit 1
                                 .equ	TWBR12	= 2 ; TWI Bit Rate register Bit 2
                                 .equ	TWBR13	= 3 ; TWI Bit Rate register Bit 3
                                 .equ	TWBR14	= 4 ; TWI Bit Rate register Bit 4
                                 .equ	TWBR15	= 5 ; TWI Bit Rate register Bit 5
                                 .equ	TWBR16	= 6 ; TWI Bit Rate register Bit 6
                                 .equ	TWBR17	= 7 ; TWI Bit Rate register Bit 7
                                 
                                 ; TWCR1 - TWI Control Register
                                 .equ	TWIE1	= 0 ; TWI Interrupt Enable
                                 .equ	TWEN1	= 2 ; TWI Enable Bit
                                 .equ	TWWC1	= 3 ; TWI Write Collition Flag
                                 .equ	TWSTO1	= 4 ; TWI Stop Condition Bit
                                 .equ	TWSTA1	= 5 ; TWI Start Condition Bit
                                 .equ	TWEA1	= 6 ; TWI Enable Acknowledge Bit
                                 .equ	TWINT1	= 7 ; TWI Interrupt Flag
                                 
                                 ; TWSR1 - TWI Status Register
                                 .equ	TWPS10	= 0 ; TWI Prescaler
                                 .equ	TWPS11	= 1 ; TWI Prescaler
                                 .equ	TWS13	= 3 ; TWI Status
                                 .equ	TWS14	= 4 ; TWI Status
                                 .equ	TWS15	= 5 ; TWI Status
                                 .equ	TWS16	= 6 ; TWI Status
                                 .equ	TWS17	= 7 ; TWI Status
                                 
                                 ; TWDR1 - TWI Data register
                                 .equ	TWDR10	= 0 ; TWI Data register Bit 0
                                 .equ	TWDR11	= 1 ; TWI Data register Bit 1
                                 .equ	TWDR12	= 2 ; TWI Data register Bit 2
                                 .equ	TWDR13	= 3 ; TWI Data register Bit 3
                                 .equ	TWDR14	= 4 ; TWI Data register Bit 4
                                 .equ	TWDR15	= 5 ; TWI Data register Bit 5
                                 .equ	TWDR16	= 6 ; TWI Data register Bit 6
                                 .equ	TWDR17	= 7 ; TWI Data register Bit 7
                                 
                                 ; TWAR1 - TWI (Slave) Address register
                                 .equ	TWAR10	= 0 ; TWI (Slave) Address register Bit 0
                                 .equ	TWAR11	= 1 ; TWI (Slave) Address register Bit 1
                                 .equ	TWAR12	= 2 ; TWI (Slave) Address register Bit 2
                                 .equ	TWAR13	= 3 ; TWI (Slave) Address register Bit 3
                                 .equ	TWAR14	= 4 ; TWI (Slave) Address register Bit 4
                                 .equ	TWAR15	= 5 ; TWI (Slave) Address register Bit 5
                                 .equ	TWAR16	= 6 ; TWI (Slave) Address register Bit 6
                                 .equ	TWAR17	= 7 ; TWI (Slave) Address register Bit 7
                                 
                                 
                                 ; ***** TC1 *****************
                                 ; TIMSK1 - Timer/Counter Interrupt Mask Register
                                 .equ	TOIE1	= 0 ; Timer/Counter1 Overflow Interrupt Enable
                                 .equ	OCIE1A	= 1 ; Timer/Counter1 Output CompareA Match Interrupt Enable
                                 .equ	OCIE1B	= 2 ; Timer/Counter1 Output CompareB Match Interrupt Enable
                                 .equ	ICIE1	= 5 ; Timer/Counter1 Input Capture Interrupt Enable
                                 
                                 ; TIFR1 - Timer/Counter Interrupt Flag register
                                 .equ	TOV1	= 0 ; Timer/Counter1 Overflow Flag
                                 .equ	OCF1A	= 1 ; Output Compare Flag 1A
                                 .equ	OCF1B	= 2 ; Output Compare Flag 1B
                                 .equ	ICF1	= 5 ; Input Capture Flag 1
                                 
                                 ; TCCR1A - Timer/Counter1 Control Register A
                                 .equ	WGM10	= 0 ; Waveform Generation Mode
                                 .equ	WGM11	= 1 ; Waveform Generation Mode
                                 .equ	COM1B0	= 4 ; Compare Output Mode 1B, bits
                                 .equ	COM1B1	= 5 ; Compare Output Mode 1B, bits
                                 .equ	COM1A0	= 6 ; Compare Output Mode 1A, bits
                                 .equ	COM1A1	= 7 ; Compare Output Mode 1A, bits
                                 
                                 ; TCCR1B - Timer/Counter1 Control Register B
                                 .equ	CS10	= 0 ; Prescaler source of Timer/Counter 1
                                 .equ	CS11	= 1 ; Prescaler source of Timer/Counter 1
                                 .equ	CS12	= 2 ; Prescaler source of Timer/Counter 1
                                 .equ	WGM12	= 3 ; Waveform Generation Mode
                                 .equ	WGM13	= 4 ; Waveform Generation Mode
                                 .equ	ICES1	= 6 ; Input Capture 1 Edge Select
                                 .equ	ICNC1	= 7 ; Input Capture 1 Noise Canceler
                                 
                                 ; TCCR1C - Timer/Counter1 Control Register C
                                 .equ	FOC1B	= 6 ; 
                                 .equ	FOC1A	= 7 ; 
                                 
                                 ; TCNT1 - Timer/Counter1 Bytes
                                 .equ	TCNT1H0	= 0 ; Timer/Counter1 Bytes High Bit 8
                                 .equ	TCNT1H1	= 1 ; Timer/Counter1 Bytes High Bit 9
                                 .equ	TCNT1H2	= 2 ; Timer/Counter1 Bytes High Bit 10
                                 .equ	TCNT1H3	= 3 ; Timer/Counter1 Bytes High Bit 11
                                 .equ	TCNT1H4	= 4 ; Timer/Counter1 Bytes High Bit 12
                                 .equ	TCNT1H5	= 5 ; Timer/Counter1 Bytes High Bit 13
                                 .equ	TCNT1H6	= 6 ; Timer/Counter1 Bytes High Bit 14
                                 .equ	TCNT1H7	= 7 ; Timer/Counter1 Bytes High Bit 15
                                 
                                 .equ	TCNT1L0	= 0 ; Timer/Counter1 Bytes Low Bit 0
                                 .equ	TCNT1L1	= 1 ; Timer/Counter1 Bytes Low Bit 1
                                 .equ	TCNT1L2	= 2 ; Timer/Counter1 Bytes Low Bit 2
                                 .equ	TCNT1L3	= 3 ; Timer/Counter1 Bytes Low Bit 3
                                 .equ	TCNT1L4	= 4 ; Timer/Counter1 Bytes Low Bit 4
                                 .equ	TCNT1L5	= 5 ; Timer/Counter1 Bytes Low Bit 5
                                 .equ	TCNT1L6	= 6 ; Timer/Counter1 Bytes Low Bit 6
                                 .equ	TCNT1L7	= 7 ; Timer/Counter1 Bytes Low Bit 7
                                 
                                 ; OCR1A - Timer/Counter1 Output Compare Register Bytes
                                 .equ	OCR1AH0	= 0 ; Timer/Counter1 Output Compare Register Bytes High Bit 8
                                 .equ	OCR1AH1	= 1 ; Timer/Counter1 Output Compare Register Bytes High Bit 9
                                 .equ	OCR1AH2	= 2 ; Timer/Counter1 Output Compare Register Bytes High Bit 10
                                 .equ	OCR1AH3	= 3 ; Timer/Counter1 Output Compare Register Bytes High Bit 11
                                 .equ	OCR1AH4	= 4 ; Timer/Counter1 Output Compare Register Bytes High Bit 12
                                 .equ	OCR1AH5	= 5 ; Timer/Counter1 Output Compare Register Bytes High Bit 13
                                 .equ	OCR1AH6	= 6 ; Timer/Counter1 Output Compare Register Bytes High Bit 14
                                 .equ	OCR1AH7	= 7 ; Timer/Counter1 Output Compare Register Bytes High Bit 15
                                 
                                 .equ	OCR1AL0	= 0 ; Timer/Counter1 Output Compare Register Bytes Low Bit 0
                                 .equ	OCR1AL1	= 1 ; Timer/Counter1 Output Compare Register Bytes Low Bit 1
                                 .equ	OCR1AL2	= 2 ; Timer/Counter1 Output Compare Register Bytes Low Bit 2
                                 .equ	OCR1AL3	= 3 ; Timer/Counter1 Output Compare Register Bytes Low Bit 3
                                 .equ	OCR1AL4	= 4 ; Timer/Counter1 Output Compare Register Bytes Low Bit 4
                                 .equ	OCR1AL5	= 5 ; Timer/Counter1 Output Compare Register Bytes Low Bit 5
                                 .equ	OCR1AL6	= 6 ; Timer/Counter1 Output Compare Register Bytes Low Bit 6
                                 .equ	OCR1AL7	= 7 ; Timer/Counter1 Output Compare Register Bytes Low Bit 7
                                 
                                 ; OCR1B - Timer/Counter1 Output Compare Register Bytes
                                 .equ	OCR1BH0	= 0 ; Timer/Counter1 Output Compare Register Bytes High Bit 8
                                 .equ	OCR1BH1	= 1 ; Timer/Counter1 Output Compare Register Bytes High Bit 9
                                 .equ	OCR1BH2	= 2 ; Timer/Counter1 Output Compare Register Bytes High Bit 10
                                 .equ	OCR1BH3	= 3 ; Timer/Counter1 Output Compare Register Bytes High Bit 11
                                 .equ	OCR1BH4	= 4 ; Timer/Counter1 Output Compare Register Bytes High Bit 12
                                 .equ	OCR1BH5	= 5 ; Timer/Counter1 Output Compare Register Bytes High Bit 13
                                 .equ	OCR1BH6	= 6 ; Timer/Counter1 Output Compare Register Bytes High Bit 14
                                 .equ	OCR1BH7	= 7 ; Timer/Counter1 Output Compare Register Bytes High Bit 15
                                 
                                 .equ	OCR1BL0	= 0 ; Timer/Counter1 Output Compare Register Bytes Low Bit 0
                                 .equ	OCR1BL1	= 1 ; Timer/Counter1 Output Compare Register Bytes Low Bit 1
                                 .equ	OCR1BL2	= 2 ; Timer/Counter1 Output Compare Register Bytes Low Bit 2
                                 .equ	OCR1BL3	= 3 ; Timer/Counter1 Output Compare Register Bytes Low Bit 3
                                 .equ	OCR1BL4	= 4 ; Timer/Counter1 Output Compare Register Bytes Low Bit 4
                                 .equ	OCR1BL5	= 5 ; Timer/Counter1 Output Compare Register Bytes Low Bit 5
                                 .equ	OCR1BL6	= 6 ; Timer/Counter1 Output Compare Register Bytes Low Bit 6
                                 .equ	OCR1BL7	= 7 ; Timer/Counter1 Output Compare Register Bytes Low Bit 7
                                 
                                 ; ICR1 - Timer/Counter1 Input Capture Register Bytes
                                 .equ	ICR1H0	= 0 ; Timer/Counter1 Input Capture Register Bytes High Bit 8
                                 .equ	ICR1H1	= 1 ; Timer/Counter1 Input Capture Register Bytes High Bit 9
                                 .equ	ICR1H2	= 2 ; Timer/Counter1 Input Capture Register Bytes High Bit 10
                                 .equ	ICR1H3	= 3 ; Timer/Counter1 Input Capture Register Bytes High Bit 11
                                 .equ	ICR1H4	= 4 ; Timer/Counter1 Input Capture Register Bytes High Bit 12
                                 .equ	ICR1H5	= 5 ; Timer/Counter1 Input Capture Register Bytes High Bit 13
                                 .equ	ICR1H6	= 6 ; Timer/Counter1 Input Capture Register Bytes High Bit 14
                                 .equ	ICR1H7	= 7 ; Timer/Counter1 Input Capture Register Bytes High Bit 15
                                 
                                 .equ	ICR1L0	= 0 ; Timer/Counter1 Input Capture Register Bytes Low Bit 0
                                 .equ	ICR1L1	= 1 ; Timer/Counter1 Input Capture Register Bytes Low Bit 1
                                 .equ	ICR1L2	= 2 ; Timer/Counter1 Input Capture Register Bytes Low Bit 2
                                 .equ	ICR1L3	= 3 ; Timer/Counter1 Input Capture Register Bytes Low Bit 3
                                 .equ	ICR1L4	= 4 ; Timer/Counter1 Input Capture Register Bytes Low Bit 4
                                 .equ	ICR1L5	= 5 ; Timer/Counter1 Input Capture Register Bytes Low Bit 5
                                 .equ	ICR1L6	= 6 ; Timer/Counter1 Input Capture Register Bytes Low Bit 6
                                 .equ	ICR1L7	= 7 ; Timer/Counter1 Input Capture Register Bytes Low Bit 7
                                 
                                 ; GTCCR - General Timer/Counter Control Register
                                 .equ	PSRSYNC	= 0 ; Prescaler Reset Timer/Counter1 and Timer/Counter0
                                 .equ	TSM	= 7 ; Timer/Counter Synchronization Mode
                                 
                                 
                                 ; ***** TC3 *****************
                                 ; TIMSK3 - Timer/Counter Interrupt Mask Register
                                 .equ	TOIE3	= 0 ; Timer/Counter3 Overflow Interrupt Enable
                                 .equ	OCIE3A	= 1 ; Timer/Counter3 Output Compare Match A Interrupt Enable
                                 .equ	OCIE3B	= 2 ; Timer/Counter3 Output Compare Match B Interrupt Enable
                                 .equ	ICIE3	= 5 ; Timer/Counter3 Input Capture Interrupt Enable
                                 
                                 ; TIFR3 - Timer/Counter3 Interrupt Flag register
                                 .equ	TOV3	= 0 ; Timer/Counter3 Overflow Flag
                                 .equ	OCF3A	= 1 ; Output Compare Flag 3A
                                 .equ	OCF3B	= 2 ; Output Compare Flag 3B
                                 .equ	ICF3	= 5 ; Timer/Counter3 Input Capture Flag
                                 
                                 ; TCCR3A - Timer/Counter3 Control Register A
                                 .equ	WGM30	= 0 ; Waveform Genration Mode
                                 .equ	WGM31	= 1 ; Waveform Genration Mode
                                 .equ	COM3B0	= 4 ; Compare Output Mode bits
                                 .equ	COM3B1	= 5 ; Compare Output Mode bits
                                 .equ	COM3A0	= 6 ; Compare Output Mode bits
                                 .equ	COM3A1	= 7 ; Compare Output Mode bits
                                 
                                 ; TCCR3B - Timer/Counter3 Control Register B
                                 .equ	CS30	= 0 ; Clock Select bits
                                 .equ	CS31	= 1 ; Clock Select bits
                                 .equ	CS32	= 2 ; Clock Select bits
                                 .equ	WGM32	= 3 ; Waveform Generation Mode bit 2
                                 .equ	WGM33	= 4 ; Waveform Generation Mode bit 3
                                 .equ	ICES3	= 6 ; Input Capture Edge Select
                                 .equ	ICNC3	= 7 ; Input Capture Noise Canceler
                                 
                                 ; TCCR3C - Timer/Counter3 Control Register C
                                 .equ	FOC3B	= 6 ; Force Output Compare for Channel B
                                 .equ	FOC3A	= 7 ; Force Output Compare for Channel A
                                 
                                 ; TCNT3 - Timer/Counter3 Bytes
                                 .equ	TCNT3H0	= 0 ; Timer/Counter3 Bytes High Bit 8
                                 .equ	TCNT3H1	= 1 ; Timer/Counter3 Bytes High Bit 9
                                 .equ	TCNT3H2	= 2 ; Timer/Counter3 Bytes High Bit 10
                                 .equ	TCNT3H3	= 3 ; Timer/Counter3 Bytes High Bit 11
                                 .equ	TCNT3H4	= 4 ; Timer/Counter3 Bytes High Bit 12
                                 .equ	TCNT3H5	= 5 ; Timer/Counter3 Bytes High Bit 13
                                 .equ	TCNT3H6	= 6 ; Timer/Counter3 Bytes High Bit 14
                                 .equ	TCNT3H7	= 7 ; Timer/Counter3 Bytes High Bit 15
                                 
                                 .equ	TCNT3L0	= 0 ; Timer/Counter3 Bytes Low Bit 0
                                 .equ	TCNT3L1	= 1 ; Timer/Counter3 Bytes Low Bit 1
                                 .equ	TCNT3L2	= 2 ; Timer/Counter3 Bytes Low Bit 2
                                 .equ	TCNT3L3	= 3 ; Timer/Counter3 Bytes Low Bit 3
                                 .equ	TCNT3L4	= 4 ; Timer/Counter3 Bytes Low Bit 4
                                 .equ	TCNT3L5	= 5 ; Timer/Counter3 Bytes Low Bit 5
                                 .equ	TCNT3L6	= 6 ; Timer/Counter3 Bytes Low Bit 6
                                 .equ	TCNT3L7	= 7 ; Timer/Counter3 Bytes Low Bit 7
                                 
                                 ; OCR3A - Timer/Counter3 Output Compare Register Bytes
                                 .equ	OCR3AH0	= 0 ; Timer/Counter3 Output Compare Register Bytes High Bit 8
                                 .equ	OCR3AH1	= 1 ; Timer/Counter3 Output Compare Register Bytes High Bit 9
                                 .equ	OCR3AH2	= 2 ; Timer/Counter3 Output Compare Register Bytes High Bit 10
                                 .equ	OCR3AH3	= 3 ; Timer/Counter3 Output Compare Register Bytes High Bit 11
                                 .equ	OCR3AH4	= 4 ; Timer/Counter3 Output Compare Register Bytes High Bit 12
                                 .equ	OCR3AH5	= 5 ; Timer/Counter3 Output Compare Register Bytes High Bit 13
                                 .equ	OCR3AH6	= 6 ; Timer/Counter3 Output Compare Register Bytes High Bit 14
                                 .equ	OCR3AH7	= 7 ; Timer/Counter3 Output Compare Register Bytes High Bit 15
                                 
                                 .equ	OCR3AL0	= 0 ; Timer/Counter3 Output Compare Register Bytes Low Bit 0
                                 .equ	OCR3AL1	= 1 ; Timer/Counter3 Output Compare Register Bytes Low Bit 1
                                 .equ	OCR3AL2	= 2 ; Timer/Counter3 Output Compare Register Bytes Low Bit 2
                                 .equ	OCR3AL3	= 3 ; Timer/Counter3 Output Compare Register Bytes Low Bit 3
                                 .equ	OCR3AL4	= 4 ; Timer/Counter3 Output Compare Register Bytes Low Bit 4
                                 .equ	OCR3AL5	= 5 ; Timer/Counter3 Output Compare Register Bytes Low Bit 5
                                 .equ	OCR3AL6	= 6 ; Timer/Counter3 Output Compare Register Bytes Low Bit 6
                                 .equ	OCR3AL7	= 7 ; Timer/Counter3 Output Compare Register Bytes Low Bit 7
                                 
                                 ; OCR3B - Timer/Counter3 Output Compare Register Bytes
                                 .equ	OCR3BH0	= 0 ; Timer/Counter3 Output Compare Register Bytes High Bit 8
                                 .equ	OCR3BH1	= 1 ; Timer/Counter3 Output Compare Register Bytes High Bit 9
                                 .equ	OCR3BH2	= 2 ; Timer/Counter3 Output Compare Register Bytes High Bit 10
                                 .equ	OCR3BH3	= 3 ; Timer/Counter3 Output Compare Register Bytes High Bit 11
                                 .equ	OCR3BH4	= 4 ; Timer/Counter3 Output Compare Register Bytes High Bit 12
                                 .equ	OCR3BH5	= 5 ; Timer/Counter3 Output Compare Register Bytes High Bit 13
                                 .equ	OCR3BH6	= 6 ; Timer/Counter3 Output Compare Register Bytes High Bit 14
                                 .equ	OCR3BH7	= 7 ; Timer/Counter3 Output Compare Register Bytes High Bit 15
                                 
                                 .equ	OCR3BL0	= 0 ; Timer/Counter3 Output Compare Register Bytes Low Bit 0
                                 .equ	OCR3BL1	= 1 ; Timer/Counter3 Output Compare Register Bytes Low Bit 1
                                 .equ	OCR3BL2	= 2 ; Timer/Counter3 Output Compare Register Bytes Low Bit 2
                                 .equ	OCR3BL3	= 3 ; Timer/Counter3 Output Compare Register Bytes Low Bit 3
                                 .equ	OCR3BL4	= 4 ; Timer/Counter3 Output Compare Register Bytes Low Bit 4
                                 .equ	OCR3BL5	= 5 ; Timer/Counter3 Output Compare Register Bytes Low Bit 5
                                 .equ	OCR3BL6	= 6 ; Timer/Counter3 Output Compare Register Bytes Low Bit 6
                                 .equ	OCR3BL7	= 7 ; Timer/Counter3 Output Compare Register Bytes Low Bit 7
                                 
                                 ; ICR3 - Timer/Counter3 Input Capture Register Bytes
                                 .equ	ICR3H0	= 0 ; Timer/Counter3 Input Capture Register Bytes High Bit 8
                                 .equ	ICR3H1	= 1 ; Timer/Counter3 Input Capture Register Bytes High Bit 9
                                 .equ	ICR3H2	= 2 ; Timer/Counter3 Input Capture Register Bytes High Bit 10
                                 .equ	ICR3H3	= 3 ; Timer/Counter3 Input Capture Register Bytes High Bit 11
                                 .equ	ICR3H4	= 4 ; Timer/Counter3 Input Capture Register Bytes High Bit 12
                                 .equ	ICR3H5	= 5 ; Timer/Counter3 Input Capture Register Bytes High Bit 13
                                 .equ	ICR3H6	= 6 ; Timer/Counter3 Input Capture Register Bytes High Bit 14
                                 .equ	ICR3H7	= 7 ; Timer/Counter3 Input Capture Register Bytes High Bit 15
                                 
                                 .equ	ICR3L0	= 0 ; Timer/Counter3 Input Capture Register Bytes Low Bit 0
                                 .equ	ICR3L1	= 1 ; Timer/Counter3 Input Capture Register Bytes Low Bit 1
                                 .equ	ICR3L2	= 2 ; Timer/Counter3 Input Capture Register Bytes Low Bit 2
                                 .equ	ICR3L3	= 3 ; Timer/Counter3 Input Capture Register Bytes Low Bit 3
                                 .equ	ICR3L4	= 4 ; Timer/Counter3 Input Capture Register Bytes Low Bit 4
                                 .equ	ICR3L5	= 5 ; Timer/Counter3 Input Capture Register Bytes Low Bit 5
                                 .equ	ICR3L6	= 6 ; Timer/Counter3 Input Capture Register Bytes Low Bit 6
                                 .equ	ICR3L7	= 7 ; Timer/Counter3 Input Capture Register Bytes Low Bit 7
                                 
                                 
                                 ; ***** TC4 *****************
                                 ; TIMSK4 - Timer/Counter4 Interrupt Mask Register
                                 .equ	TOIE4	= 0 ; Timer/Counter4 Overflow Interrupt Enable
                                 .equ	OCIE4A	= 1 ; Timer/Counter4 Output Compare Match A Interrupt Enable
                                 .equ	OCIE4B	= 2 ; Timer/Counter4 Output Compare Match B Interrupt Enable
                                 .equ	ICIE4	= 5 ; Timer/Counter4 Input Capture Interrupt Enable
                                 
                                 ; TIFR4 - Timer/Counter4 Interrupt Flag register
                                 .equ	TOV4	= 0 ; Timer/Counter4 Overflow Flag
                                 .equ	OCF4A	= 1 ; Output Compare Flag 4A
                                 .equ	OCF4B	= 2 ; Output Compare Flag 4B
                                 .equ	ICF4	= 5 ; Timer/Counter4 Input Capture Flag
                                 
                                 ; TCCR4A - Timer/Counter4 Control Register A
                                 .equ	WGM40	= 0 ; Waveform Generation Mode
                                 .equ	WGM41	= 1 ; Waveform Generation Mode
                                 .equ	COM4B0	= 4 ; Compare Output Mode bits
                                 .equ	COM4B1	= 5 ; Compare Output Mode bits
                                 .equ	COM4A0	= 6 ; Compare Output Mode bits
                                 .equ	COM4A1	= 7 ; Compare Output Mode bits
                                 
                                 ; TCCR4B - Timer/Counter4 Control Register B
                                 .equ	CS40	= 0 ; Clock Select bits
                                 .equ	CS41	= 1 ; Clock Select bits
                                 .equ	CS42	= 2 ; Clock Select bits
                                 .equ	WGM42	= 3 ; Waveform Generation Mode bit 2
                                 .equ	WGM43	= 4 ; Waveform Generation Mode bit 3
                                 .equ	ICES4	= 6 ; Input Capture Edge Select
                                 .equ	ICNC4	= 7 ; Input Capture Noise Canceler
                                 
                                 ; TCCR4C - Timer/Counter4 Control Register C
                                 .equ	FOC4B	= 6 ; Force Output Compare for Channel B
                                 .equ	FOC4A	= 7 ; Force Output Compare for Channel A
                                 
                                 ; TCNT4 - Timer/Counter4 Bytes
                                 .equ	TCNT4H0	= 0 ; Timer/Counter4 Bytes High Bit 8
                                 .equ	TCNT4H1	= 1 ; Timer/Counter4 Bytes High Bit 9
                                 .equ	TCNT4H2	= 2 ; Timer/Counter4 Bytes High Bit 10
                                 .equ	TCNT4H3	= 3 ; Timer/Counter4 Bytes High Bit 11
                                 .equ	TCNT4H4	= 4 ; Timer/Counter4 Bytes High Bit 12
                                 .equ	TCNT4H5	= 5 ; Timer/Counter4 Bytes High Bit 13
                                 .equ	TCNT4H6	= 6 ; Timer/Counter4 Bytes High Bit 14
                                 .equ	TCNT4H7	= 7 ; Timer/Counter4 Bytes High Bit 15
                                 
                                 .equ	TCNT4L0	= 0 ; Timer/Counter4 Bytes Low Bit 0
                                 .equ	TCNT4L1	= 1 ; Timer/Counter4 Bytes Low Bit 1
                                 .equ	TCNT4L2	= 2 ; Timer/Counter4 Bytes Low Bit 2
                                 .equ	TCNT4L3	= 3 ; Timer/Counter4 Bytes Low Bit 3
                                 .equ	TCNT4L4	= 4 ; Timer/Counter4 Bytes Low Bit 4
                                 .equ	TCNT4L5	= 5 ; Timer/Counter4 Bytes Low Bit 5
                                 .equ	TCNT4L6	= 6 ; Timer/Counter4 Bytes Low Bit 6
                                 .equ	TCNT4L7	= 7 ; Timer/Counter4 Bytes Low Bit 7
                                 
                                 ; OCR4A - Timer/Counter4 Output Compare Register Bytes
                                 .equ	OCR4AH0	= 0 ; Timer/Counter4 Output Compare Register Bytes High Bit 8
                                 .equ	OCR4AH1	= 1 ; Timer/Counter4 Output Compare Register Bytes High Bit 9
                                 .equ	OCR4AH2	= 2 ; Timer/Counter4 Output Compare Register Bytes High Bit 10
                                 .equ	OCR4AH3	= 3 ; Timer/Counter4 Output Compare Register Bytes High Bit 11
                                 .equ	OCR4AH4	= 4 ; Timer/Counter4 Output Compare Register Bytes High Bit 12
                                 .equ	OCR4AH5	= 5 ; Timer/Counter4 Output Compare Register Bytes High Bit 13
                                 .equ	OCR4AH6	= 6 ; Timer/Counter4 Output Compare Register Bytes High Bit 14
                                 .equ	OCR4AH7	= 7 ; Timer/Counter4 Output Compare Register Bytes High Bit 15
                                 
                                 .equ	OCR4AL0	= 0 ; Timer/Counter4 Output Compare Register Bytes Low Bit 0
                                 .equ	OCR4AL1	= 1 ; Timer/Counter4 Output Compare Register Bytes Low Bit 1
                                 .equ	OCR4AL2	= 2 ; Timer/Counter4 Output Compare Register Bytes Low Bit 2
                                 .equ	OCR4AL3	= 3 ; Timer/Counter4 Output Compare Register Bytes Low Bit 3
                                 .equ	OCR4AL4	= 4 ; Timer/Counter4 Output Compare Register Bytes Low Bit 4
                                 .equ	OCR4AL5	= 5 ; Timer/Counter4 Output Compare Register Bytes Low Bit 5
                                 .equ	OCR4AL6	= 6 ; Timer/Counter4 Output Compare Register Bytes Low Bit 6
                                 .equ	OCR4AL7	= 7 ; Timer/Counter4 Output Compare Register Bytes Low Bit 7
                                 
                                 ; OCR4B - Timer/Counter4 Output Compare Register Bytes
                                 .equ	OCR4BH0	= 0 ; Timer/Counter4 Output Compare Register Bytes High Bit 8
                                 .equ	OCR4BH1	= 1 ; Timer/Counter4 Output Compare Register Bytes High Bit 9
                                 .equ	OCR4BH2	= 2 ; Timer/Counter4 Output Compare Register Bytes High Bit 10
                                 .equ	OCR4BH3	= 3 ; Timer/Counter4 Output Compare Register Bytes High Bit 11
                                 .equ	OCR4BH4	= 4 ; Timer/Counter4 Output Compare Register Bytes High Bit 12
                                 .equ	OCR4BH5	= 5 ; Timer/Counter4 Output Compare Register Bytes High Bit 13
                                 .equ	OCR4BH6	= 6 ; Timer/Counter4 Output Compare Register Bytes High Bit 14
                                 .equ	OCR4BH7	= 7 ; Timer/Counter4 Output Compare Register Bytes High Bit 15
                                 
                                 .equ	OCR4BL0	= 0 ; Timer/Counter4 Output Compare Register Bytes Low Bit 0
                                 .equ	OCR4BL1	= 1 ; Timer/Counter4 Output Compare Register Bytes Low Bit 1
                                 .equ	OCR4BL2	= 2 ; Timer/Counter4 Output Compare Register Bytes Low Bit 2
                                 .equ	OCR4BL3	= 3 ; Timer/Counter4 Output Compare Register Bytes Low Bit 3
                                 .equ	OCR4BL4	= 4 ; Timer/Counter4 Output Compare Register Bytes Low Bit 4
                                 .equ	OCR4BL5	= 5 ; Timer/Counter4 Output Compare Register Bytes Low Bit 5
                                 .equ	OCR4BL6	= 6 ; Timer/Counter4 Output Compare Register Bytes Low Bit 6
                                 .equ	OCR4BL7	= 7 ; Timer/Counter4 Output Compare Register Bytes Low Bit 7
                                 
                                 ; ICR4 - Timer/Counter4 Input Capture Register Bytes
                                 .equ	ICR4H0	= 0 ; Timer/Counter4 Input Capture Register Bytes High Bit 8
                                 .equ	ICR4H1	= 1 ; Timer/Counter4 Input Capture Register Bytes High Bit 9
                                 .equ	ICR4H2	= 2 ; Timer/Counter4 Input Capture Register Bytes High Bit 10
                                 .equ	ICR4H3	= 3 ; Timer/Counter4 Input Capture Register Bytes High Bit 11
                                 .equ	ICR4H4	= 4 ; Timer/Counter4 Input Capture Register Bytes High Bit 12
                                 .equ	ICR4H5	= 5 ; Timer/Counter4 Input Capture Register Bytes High Bit 13
                                 .equ	ICR4H6	= 6 ; Timer/Counter4 Input Capture Register Bytes High Bit 14
                                 .equ	ICR4H7	= 7 ; Timer/Counter4 Input Capture Register Bytes High Bit 15
                                 
                                 .equ	ICR4L0	= 0 ; Timer/Counter4 Input Capture Register Bytes Low Bit 0
                                 .equ	ICR4L1	= 1 ; Timer/Counter4 Input Capture Register Bytes Low Bit 1
                                 .equ	ICR4L2	= 2 ; Timer/Counter4 Input Capture Register Bytes Low Bit 2
                                 .equ	ICR4L3	= 3 ; Timer/Counter4 Input Capture Register Bytes Low Bit 3
                                 .equ	ICR4L4	= 4 ; Timer/Counter4 Input Capture Register Bytes Low Bit 4
                                 .equ	ICR4L5	= 5 ; Timer/Counter4 Input Capture Register Bytes Low Bit 5
                                 .equ	ICR4L6	= 6 ; Timer/Counter4 Input Capture Register Bytes Low Bit 6
                                 .equ	ICR4L7	= 7 ; Timer/Counter4 Input Capture Register Bytes Low Bit 7
                                 
                                 
                                 ; ***** TC2 *****************
                                 ; TIMSK2 - Timer/Counter Interrupt Mask register
                                 .equ	TOIE2	= 0 ; Timer/Counter2 Overflow Interrupt Enable
                                 .equ	OCIE2A	= 1 ; Timer/Counter2 Output Compare Match A Interrupt Enable
                                 .equ	OCIE2B	= 2 ; Timer/Counter2 Output Compare Match B Interrupt Enable
                                 
                                 ; TIFR2 - Timer/Counter Interrupt Flag Register
                                 .equ	TOV2	= 0 ; Timer/Counter2 Overflow Flag
                                 .equ	OCF2A	= 1 ; Output Compare Flag 2A
                                 .equ	OCF2B	= 2 ; Output Compare Flag 2B
                                 
                                 ; TCCR2A - Timer/Counter2 Control Register A
                                 .equ	WGM20	= 0 ; Waveform Genration Mode
                                 .equ	WGM21	= 1 ; Waveform Genration Mode
                                 .equ	COM2B0	= 4 ; Compare Output Mode bits
                                 .equ	COM2B1	= 5 ; Compare Output Mode bits
                                 .equ	COM2A0	= 6 ; Compare Output Mode bits
                                 .equ	COM2A1	= 7 ; Compare Output Mode bits
                                 
                                 ; TCCR2B - Timer/Counter2 Control Register B
                                 .equ	CS20	= 0 ; Clock Select bits
                                 .equ	CS21	= 1 ; Clock Select bits
                                 .equ	CS22	= 2 ; Clock Select bits
                                 .equ	WGM22	= 3 ; Waveform Generation Mode
                                 .equ	FOC2B	= 6 ; Force Output Compare B
                                 .equ	FOC2A	= 7 ; Force Output Compare A
                                 
                                 ; TCNT2 - Timer/Counter2
                                 .equ	TCNT20	= 0 ; Timer/Counter2 Bit 0
                                 .equ	TCNT21	= 1 ; Timer/Counter2 Bit 1
                                 .equ	TCNT22	= 2 ; Timer/Counter2 Bit 2
                                 .equ	TCNT23	= 3 ; Timer/Counter2 Bit 3
                                 .equ	TCNT24	= 4 ; Timer/Counter2 Bit 4
                                 .equ	TCNT25	= 5 ; Timer/Counter2 Bit 5
                                 .equ	TCNT26	= 6 ; Timer/Counter2 Bit 6
                                 .equ	TCNT27	= 7 ; Timer/Counter2 Bit 7
                                 
                                 ; OCR2B - Timer/Counter2 Output Compare Register B
                                 .equ	OCR2B0	= 0 ; Timer/Counter2 Output Compare Register B Bit 0
                                 .equ	OCR2B1	= 1 ; Timer/Counter2 Output Compare Register B Bit 1
                                 .equ	OCR2B2	= 2 ; Timer/Counter2 Output Compare Register B Bit 2
                                 .equ	OCR2B3	= 3 ; Timer/Counter2 Output Compare Register B Bit 3
                                 .equ	OCR2B4	= 4 ; Timer/Counter2 Output Compare Register B Bit 4
                                 .equ	OCR2B5	= 5 ; Timer/Counter2 Output Compare Register B Bit 5
                                 .equ	OCR2B6	= 6 ; Timer/Counter2 Output Compare Register B Bit 6
                                 .equ	OCR2B7	= 7 ; Timer/Counter2 Output Compare Register B Bit 7
                                 
                                 ; OCR2A - Timer/Counter2 Output Compare Register A
                                 .equ	OCR2A0	= 0 ; Timer/Counter2 Output Compare Register A Bit 0
                                 .equ	OCR2A1	= 1 ; Timer/Counter2 Output Compare Register A Bit 1
                                 .equ	OCR2A2	= 2 ; Timer/Counter2 Output Compare Register A Bit 2
                                 .equ	OCR2A3	= 3 ; Timer/Counter2 Output Compare Register A Bit 3
                                 .equ	OCR2A4	= 4 ; Timer/Counter2 Output Compare Register A Bit 4
                                 .equ	OCR2A5	= 5 ; Timer/Counter2 Output Compare Register A Bit 5
                                 .equ	OCR2A6	= 6 ; Timer/Counter2 Output Compare Register A Bit 6
                                 .equ	OCR2A7	= 7 ; Timer/Counter2 Output Compare Register A Bit 7
                                 
                                 ; ASSR - Asynchronous Status Register
                                 .equ	TCR2BUB	= 0 ; Timer/Counter Control Register2 Update Busy
                                 .equ	TCR2AUB	= 1 ; Timer/Counter Control Register2 Update Busy
                                 .equ	OCR2BUB	= 2 ; Output Compare Register 2 Update Busy
                                 .equ	OCR2AUB	= 3 ; Output Compare Register2 Update Busy
                                 .equ	TCN2UB	= 4 ; Timer/Counter2 Update Busy
                                 .equ	AS2	= 5 ; Asynchronous Timer/Counter2
                                 .equ	EXCLK	= 6 ; Enable External Clock Input
                                 
                                 ; GTCCR - General Timer Counter Control register
                                 .equ	PSRASY	= 1 ; Prescaler Reset Timer/Counter2
                                 
                                 
                                 ; ***** ADC *****************
                                 ; ADMUX - The ADC multiplexer Selection Register
                                 .equ	MUX0	= 0 ; Analog Channel Selection Bits
                                 .equ	MUX1	= 1 ; Analog Channel Selection Bits
                                 .equ	MUX2	= 2 ; Analog Channel Selection Bits
                                 .equ	MUX3	= 3 ; Analog Channel Selection Bits
                                 .equ	ADLAR	= 5 ; Left Adjust Result
                                 .equ	REFS0	= 6 ; Reference Selection Bits
                                 .equ	REFS1	= 7 ; Reference Selection Bits
                                 
                                 ; ADC - ADC Data Register Bytes
                                 .equ	ADCH0	= 0 ; ADC Data Register Bytes High Bit 8
                                 .equ	ADCH1	= 1 ; ADC Data Register Bytes High Bit 9
                                 .equ	ADCH2	= 2 ; ADC Data Register Bytes High Bit 10
                                 .equ	ADCH3	= 3 ; ADC Data Register Bytes High Bit 11
                                 .equ	ADCH4	= 4 ; ADC Data Register Bytes High Bit 12
                                 .equ	ADCH5	= 5 ; ADC Data Register Bytes High Bit 13
                                 .equ	ADCH6	= 6 ; ADC Data Register Bytes High Bit 14
                                 .equ	ADCH7	= 7 ; ADC Data Register Bytes High Bit 15
                                 
                                 .equ	ADCL0	= 0 ; ADC Data Register Bytes Low Bit 0
                                 .equ	ADCL1	= 1 ; ADC Data Register Bytes Low Bit 1
                                 .equ	ADCL2	= 2 ; ADC Data Register Bytes Low Bit 2
                                 .equ	ADCL3	= 3 ; ADC Data Register Bytes Low Bit 3
                                 .equ	ADCL4	= 4 ; ADC Data Register Bytes Low Bit 4
                                 .equ	ADCL5	= 5 ; ADC Data Register Bytes Low Bit 5
                                 .equ	ADCL6	= 6 ; ADC Data Register Bytes Low Bit 6
                                 .equ	ADCL7	= 7 ; ADC Data Register Bytes Low Bit 7
                                 
                                 ; ADCSRA - The ADC Control and Status register A
                                 .equ	ADPS0	= 0 ; ADC Prescaler Select Bits
                                 .equ	ADPS1	= 1 ; ADC Prescaler Select Bits
                                 .equ	ADPS2	= 2 ; ADC Prescaler Select Bits
                                 .equ	ADIE	= 3 ; ADC Interrupt Enable
                                 .equ	ADIF	= 4 ; ADC Interrupt Flag
                                 .equ	ADATE	= 5 ; ADC Auto Trigger Enable
                                 .equ	ADSC	= 6 ; ADC Start Conversion
                                 .equ	ADEN	= 7 ; ADC Enable
                                 
                                 ; ADCSRB - The ADC Control and Status register B
                                 .equ	ADTS0	= 0 ; ADC Auto Trigger Source bits
                                 .equ	ADTS1	= 1 ; ADC Auto Trigger Source bits
                                 .equ	ADTS2	= 2 ; ADC Auto Trigger Source bits
                                 .equ	ACME	= 6 ; Analog Comparator Multiplexer Enable
                                 
                                 ; DIDR0 - Digital Input Disable Register
                                 .equ	ADC0D	= 0 ; ADC Digital Input Disable
                                 .equ	ADC1D	= 1 ; ADC Digital Input Disable
                                 .equ	ADC2D	= 2 ; ADC Digital Input Disable
                                 .equ	ADC3D	= 3 ; ADC Digital Input Disable
                                 .equ	ADC4D	= 4 ; ADC Digital Input Disable
                                 .equ	ADC5D	= 5 ; ADC Digital Input Disable
                                 .equ	ADC6D	= 6 ; ADC Digital Input Disable
                                 .equ	ADC7D	= 7 ; ADC Digital Input Disable
                                 
                                 
                                 ; ***** AC *****************
                                 ; ACSRA - Analog Comparator Control And Status Register-A
                                 .equ	ACSRA0	= 0 ; Analog Comparator Control And Status Register-A Bit 0
                                 .equ	ACSRA1	= 1 ; Analog Comparator Control And Status Register-A Bit 1
                                 .equ	ACSRA2	= 2 ; Analog Comparator Control And Status Register-A Bit 2
                                 .equ	ACSRA3	= 3 ; Analog Comparator Control And Status Register-A Bit 3
                                 .equ	ACSRA4	= 4 ; Analog Comparator Control And Status Register-A Bit 4
                                 .equ	ACSRA5	= 5 ; Analog Comparator Control And Status Register-A Bit 5
                                 .equ	ACSRA6	= 6 ; Analog Comparator Control And Status Register-A Bit 6
                                 .equ	ACSRA7	= 7 ; Analog Comparator Control And Status Register-A Bit 7
                                 
                                 ; ACSR - Analog Comparator Control And Status Register
                                 .equ	ACIS0	= 0 ; Analog Comparator Interrupt Mode Select bits
                                 .equ	ACIS1	= 1 ; Analog Comparator Interrupt Mode Select bits
                                 .equ	ACIC	= 2 ; Analog Comparator Input Capture Enable
                                 .equ	ACIE	= 3 ; Analog Comparator Interrupt Enable
                                 .equ	ACI	= 4 ; Analog Comparator Interrupt Flag
                                 .equ	ACO	= 5 ; Analog Compare Output
                                 .equ	ACBG	= 6 ; Analog Comparator Bandgap Select
                                 .equ	ACD	= 7 ; Analog Comparator Disable
                                 
                                 ; ACSRB - Analog Comparator Control And Status Register-B
                                 .equ	ACOE	= 0 ; Analog Comparator Output Enable
                                 
                                 ; DIDR1 - Digital Input Disable Register 1
                                 .equ	AIN0D	= 0 ; AIN0 Digital Input Disable
                                 .equ	AIN1D	= 1 ; AIN1 Digital Input Disable
                                 
                                 
                                 ; ***** PORTB *****************
                                 ; PORTB - Port B Data Register
                                 .equ	PORTB0	= 0 ; Port B Data Register Bit 0
                                 .equ	PORTB1	= 1 ; Port B Data Register Bit 1
                                 .equ	PORTB2	= 2 ; Port B Data Register Bit 2
                                 .equ	PORTB3	= 3 ; Port B Data Register Bit 3
                                 .equ	PORTB4	= 4 ; Port B Data Register Bit 4
                                 .equ	PORTB5	= 5 ; Port B Data Register Bit 5
                                 .equ	PORTB6	= 6 ; Port B Data Register Bit 6
                                 .equ	PORTB7	= 7 ; Port B Data Register Bit 7
                                 
                                 ; DDRB - Port B Data Direction Register
                                 .equ	DDRB0	= 0 ; Port B Data Direction Register Bit 0
                                 .equ	DDRB1	= 1 ; Port B Data Direction Register Bit 1
                                 .equ	DDRB2	= 2 ; Port B Data Direction Register Bit 2
                                 .equ	DDRB3	= 3 ; Port B Data Direction Register Bit 3
                                 .equ	DDRB4	= 4 ; Port B Data Direction Register Bit 4
                                 .equ	DDRB5	= 5 ; Port B Data Direction Register Bit 5
                                 .equ	DDRB6	= 6 ; Port B Data Direction Register Bit 6
                                 .equ	DDRB7	= 7 ; Port B Data Direction Register Bit 7
                                 
                                 ; PINB - Port B Input Pins
                                 .equ	PINB0	= 0 ; Port B Input Pins Bit 0
                                 .equ	PINB1	= 1 ; Port B Input Pins Bit 1
                                 .equ	PINB2	= 2 ; Port B Input Pins Bit 2
                                 .equ	PINB3	= 3 ; Port B Input Pins Bit 3
                                 .equ	PINB4	= 4 ; Port B Input Pins Bit 4
                                 .equ	PINB5	= 5 ; Port B Input Pins Bit 5
                                 .equ	PINB6	= 6 ; Port B Input Pins Bit 6
                                 .equ	PINB7	= 7 ; Port B Input Pins Bit 7
                                 
                                 
                                 ; ***** PORTC *****************
                                 ; PORTC - Port C Data Register
                                 .equ	PORTC0	= 0 ; Port C Data Register Bit 0
                                 .equ	PORTC1	= 1 ; Port C Data Register Bit 1
                                 .equ	PORTC2	= 2 ; Port C Data Register Bit 2
                                 .equ	PORTC3	= 3 ; Port C Data Register Bit 3
                                 .equ	PORTC4	= 4 ; Port C Data Register Bit 4
                                 .equ	PORTC5	= 5 ; Port C Data Register Bit 5
                                 .equ	PORTC6	= 6 ; Port C Data Register Bit 6
                                 
                                 ; DDRC - Port C Data Direction Register
                                 .equ	DDRC0	= 0 ; Port C Data Direction Register Bit 0
                                 .equ	DDRC1	= 1 ; Port C Data Direction Register Bit 1
                                 .equ	DDRC2	= 2 ; Port C Data Direction Register Bit 2
                                 .equ	DDRC3	= 3 ; Port C Data Direction Register Bit 3
                                 .equ	DDRC4	= 4 ; Port C Data Direction Register Bit 4
                                 .equ	DDRC5	= 5 ; Port C Data Direction Register Bit 5
                                 .equ	DDRC6	= 6 ; Port C Data Direction Register Bit 6
                                 
                                 ; PINC - Port C Input Pins
                                 .equ	PINC0	= 0 ; Port C Input Pins Bit 0
                                 .equ	PINC1	= 1 ; Port C Input Pins Bit 1
                                 .equ	PINC2	= 2 ; Port C Input Pins Bit 2
                                 .equ	PINC3	= 3 ; Port C Input Pins Bit 3
                                 .equ	PINC4	= 4 ; Port C Input Pins Bit 4
                                 .equ	PINC5	= 5 ; Port C Input Pins Bit 5
                                 .equ	PINC6	= 6 ; Port C Input Pins Bit 6
                                 
                                 
                                 ; ***** PORTD *****************
                                 ; PORTD - Port D Data Register
                                 .equ	PORTD0	= 0 ; Port D Data Register Bit 0
                                 .equ	PORTD1	= 1 ; Port D Data Register Bit 1
                                 .equ	PORTD2	= 2 ; Port D Data Register Bit 2
                                 .equ	PORTD3	= 3 ; Port D Data Register Bit 3
                                 .equ	PORTD4	= 4 ; Port D Data Register Bit 4
                                 .equ	PORTD5	= 5 ; Port D Data Register Bit 5
                                 .equ	PORTD6	= 6 ; Port D Data Register Bit 6
                                 .equ	PORTD7	= 7 ; Port D Data Register Bit 7
                                 
                                 ; DDRD - Port D Data Direction Register
                                 .equ	DDRD0	= 0 ; Port D Data Direction Register Bit 0
                                 .equ	DDRD1	= 1 ; Port D Data Direction Register Bit 1
                                 .equ	DDRD2	= 2 ; Port D Data Direction Register Bit 2
                                 .equ	DDRD3	= 3 ; Port D Data Direction Register Bit 3
                                 .equ	DDRD4	= 4 ; Port D Data Direction Register Bit 4
                                 .equ	DDRD5	= 5 ; Port D Data Direction Register Bit 5
                                 .equ	DDRD6	= 6 ; Port D Data Direction Register Bit 6
                                 .equ	DDRD7	= 7 ; Port D Data Direction Register Bit 7
                                 
                                 ; PIND - Port D Input Pins
                                 .equ	PIND0	= 0 ; Port D Input Pins Bit 0
                                 .equ	PIND1	= 1 ; Port D Input Pins Bit 1
                                 .equ	PIND2	= 2 ; Port D Input Pins Bit 2
                                 .equ	PIND3	= 3 ; Port D Input Pins Bit 3
                                 .equ	PIND4	= 4 ; Port D Input Pins Bit 4
                                 .equ	PIND5	= 5 ; Port D Input Pins Bit 5
                                 .equ	PIND6	= 6 ; Port D Input Pins Bit 6
                                 .equ	PIND7	= 7 ; Port D Input Pins Bit 7
                                 
                                 
                                 ; ***** PORTE *****************
                                 ; PORTE - Port E Data Register
                                 .equ	PORTE0	= 0 ; Port E Data Register Bit 0
                                 .equ	PORTE1	= 1 ; Port E Data Register Bit 1
                                 .equ	PORTE2	= 2 ; Port E Data Register Bit 2
                                 .equ	PORTE3	= 3 ; Port E Data Register Bit 3
                                 
                                 ; DDRE - Port E Data Direction Register
                                 .equ	DDRE0	= 0 ; Port E Data Direction Register Bit 0
                                 .equ	DDRE1	= 1 ; Port E Data Direction Register Bit 1
                                 .equ	DDRE2	= 2 ; Port E Data Direction Register Bit 2
                                 .equ	DDRE3	= 3 ; Port E Data Direction Register Bit 3
                                 
                                 ; PINE - Port E Input Pins
                                 .equ	PINE0	= 0 ; Port E Input Pins Bit 0
                                 .equ	PINE1	= 1 ; Port E Input Pins Bit 1
                                 .equ	PINE2	= 2 ; Port E Input Pins Bit 2
                                 .equ	PINE3	= 3 ; Port E Input Pins Bit 3
                                 
                                 
                                 ; ***** TC0 *****************
                                 ; OCR0B - Timer/Counter0 Output Compare Register
                                 .equ	OCR0B0	= 0 ; Timer/Counter0 Output Compare Register Bit 0
                                 .equ	OCR0B1	= 1 ; Timer/Counter0 Output Compare Register Bit 1
                                 .equ	OCR0B2	= 2 ; Timer/Counter0 Output Compare Register Bit 2
                                 .equ	OCR0B3	= 3 ; Timer/Counter0 Output Compare Register Bit 3
                                 .equ	OCR0B4	= 4 ; Timer/Counter0 Output Compare Register Bit 4
                                 .equ	OCR0B5	= 5 ; Timer/Counter0 Output Compare Register Bit 5
                                 .equ	OCR0B6	= 6 ; Timer/Counter0 Output Compare Register Bit 6
                                 .equ	OCR0B7	= 7 ; Timer/Counter0 Output Compare Register Bit 7
                                 
                                 ; OCR0A - Timer/Counter0 Output Compare Register
                                 .equ	OCR0A0	= 0 ; Timer/Counter0 Output Compare Register Bit 0
                                 .equ	OCR0A1	= 1 ; Timer/Counter0 Output Compare Register Bit 1
                                 .equ	OCR0A2	= 2 ; Timer/Counter0 Output Compare Register Bit 2
                                 .equ	OCR0A3	= 3 ; Timer/Counter0 Output Compare Register Bit 3
                                 .equ	OCR0A4	= 4 ; Timer/Counter0 Output Compare Register Bit 4
                                 .equ	OCR0A5	= 5 ; Timer/Counter0 Output Compare Register Bit 5
                                 .equ	OCR0A6	= 6 ; Timer/Counter0 Output Compare Register Bit 6
                                 .equ	OCR0A7	= 7 ; Timer/Counter0 Output Compare Register Bit 7
                                 
                                 ; TCNT0 - Timer/Counter0
                                 .equ	TCNT00	= 0 ; Timer/Counter0 Bit 0
                                 .equ	TCNT01	= 1 ; Timer/Counter0 Bit 1
                                 .equ	TCNT02	= 2 ; Timer/Counter0 Bit 2
                                 .equ	TCNT03	= 3 ; Timer/Counter0 Bit 3
                                 .equ	TCNT04	= 4 ; Timer/Counter0 Bit 4
                                 .equ	TCNT05	= 5 ; Timer/Counter0 Bit 5
                                 .equ	TCNT06	= 6 ; Timer/Counter0 Bit 6
                                 .equ	TCNT07	= 7 ; Timer/Counter0 Bit 7
                                 
                                 ; TCCR0B - Timer/Counter Control Register B
                                 .equ	CS00	= 0 ; Clock Select
                                 .equ	CS01	= 1 ; Clock Select
                                 .equ	CS02	= 2 ; Clock Select
                                 .equ	WGM02	= 3 ; 
                                 .equ	FOC0B	= 6 ; Force Output Compare B
                                 .equ	FOC0A	= 7 ; Force Output Compare A
                                 
                                 ; TCCR0A - Timer/Counter Control Register A
                                 .equ	WGM00	= 0 ; Waveform Generation Mode
                                 .equ	WGM01	= 1 ; Waveform Generation Mode
                                 .equ	COM0B0	= 4 ; Compare Output Mode, Fast PWM
                                 .equ	COM0B1	= 5 ; Compare Output Mode, Fast PWM
                                 .equ	COM0A0	= 6 ; Compare Output Mode, Phase Correct PWM Mode
                                 .equ	COM0A1	= 7 ; Compare Output Mode, Phase Correct PWM Mode
                                 
                                 ; TIMSK0 - Timer/Counter0 Interrupt Mask Register
                                 .equ	TOIE0	= 0 ; Timer/Counter0 Overflow Interrupt Enable
                                 .equ	OCIE0A	= 1 ; Timer/Counter0 Output Compare Match A Interrupt Enable
                                 .equ	OCIE0B	= 2 ; Timer/Counter0 Output Compare Match B Interrupt Enable
                                 
                                 ; TIFR0 - Timer/Counter0 Interrupt Flag register
                                 .equ	TOV0	= 0 ; Timer/Counter0 Overflow Flag
                                 .equ	OCF0A	= 1 ; Timer/Counter0 Output Compare Flag 0A
                                 .equ	OCF0B	= 2 ; Timer/Counter0 Output Compare Flag 0B
                                 
                                 ; GTCCR - General Timer/Counter Control Register
                                 
                                 
                                 ; ***** EXINT *****************
                                 ; EICRA - External Interrupt Control Register
                                 .equ	ISC00	= 0 ; External Interrupt Sense Control 0 Bits
                                 .equ	ISC01	= 1 ; External Interrupt Sense Control 0 Bits
                                 .equ	ISC10	= 2 ; External Interrupt Sense Control 1 Bits
                                 .equ	ISC11	= 3 ; External Interrupt Sense Control 1 Bits
                                 
                                 ; EIMSK - External Interrupt Mask Register
                                 .equ	INT0	= 0 ; External Interrupt Request 1 Enable
                                 .equ	INT1	= 1 ; External Interrupt Request 1 Enable
                                 
                                 ; EIFR - External Interrupt Flag Register
                                 .equ	INTF0	= 0 ; External Interrupt Flags
                                 .equ	INTF1	= 1 ; External Interrupt Flags
                                 
                                 ; PCICR - Pin Change Interrupt Control Register
                                 .equ	PCIE0	= 0 ; Pin Change Interrupt Enables
                                 .equ	PCIE1	= 1 ; Pin Change Interrupt Enables
                                 .equ	PCIE2	= 2 ; Pin Change Interrupt Enables
                                 .equ	PCIE3	= 3 ; Pin Change Interrupt Enables
                                 
                                 ; PCMSK3 - Pin Change Mask Register 3
                                 .equ	PCINT24	= 0 ; Pin Change Enable Masks
                                 .equ	PCINT25	= 1 ; Pin Change Enable Masks
                                 .equ	PCINT26	= 2 ; Pin Change Enable Masks
                                 .equ	PCINT27	= 3 ; Pin Change Enable Masks
                                 
                                 ; PCMSK2 - Pin Change Mask Register 2
                                 .equ	PCINT16	= 0 ; Pin Change Enable Masks
                                 .equ	PCINT17	= 1 ; Pin Change Enable Masks
                                 .equ	PCINT18	= 2 ; Pin Change Enable Masks
                                 .equ	PCINT19	= 3 ; Pin Change Enable Masks
                                 .equ	PCINT20	= 4 ; Pin Change Enable Masks
                                 .equ	PCINT21	= 5 ; Pin Change Enable Masks
                                 .equ	PCINT22	= 6 ; Pin Change Enable Masks
                                 .equ	PCINT23	= 7 ; Pin Change Enable Masks
                                 
                                 ; PCMSK1 - Pin Change Mask Register 1
                                 .equ	PCINT8	= 0 ; Pin Change Enable Masks
                                 .equ	PCINT9	= 1 ; Pin Change Enable Masks
                                 .equ	PCINT10	= 2 ; Pin Change Enable Masks
                                 .equ	PCINT11	= 3 ; Pin Change Enable Masks
                                 .equ	PCINT12	= 4 ; Pin Change Enable Masks
                                 .equ	PCINT13	= 5 ; Pin Change Enable Masks
                                 .equ	PCINT14	= 6 ; Pin Change Enable Masks
                                 
                                 ; PCMSK0 - Pin Change Mask Register 0
                                 .equ	PCINT0	= 0 ; Pin Change Enable Masks
                                 .equ	PCINT1	= 1 ; Pin Change Enable Masks
                                 .equ	PCINT2	= 2 ; Pin Change Enable Masks
                                 .equ	PCINT3	= 3 ; Pin Change Enable Masks
                                 .equ	PCINT4	= 4 ; Pin Change Enable Masks
                                 .equ	PCINT5	= 5 ; Pin Change Enable Masks
                                 .equ	PCINT6	= 6 ; Pin Change Enable Masks
                                 .equ	PCINT7	= 7 ; Pin Change Enable Masks
                                 
                                 ; PCIFR - Pin Change Interrupt Flag Register
                                 .equ	PCIF0	= 0 ; Pin Change Interrupt Flags
                                 .equ	PCIF1	= 1 ; Pin Change Interrupt Flags
                                 .equ	PCIF2	= 2 ; Pin Change Interrupt Flags
                                 .equ	PCIF3	= 3 ; Pin Change Interrupt Flags
                                 
                                 
                                 ; ***** SPI0 *****************
                                 ; SPDR0 - SPI Data Register
                                 .equ	SPDR00	= 0 ; SPI Data Register Bit 0
                                 .equ	SPDR01	= 1 ; SPI Data Register Bit 1
                                 .equ	SPDR02	= 2 ; SPI Data Register Bit 2
                                 .equ	SPDR03	= 3 ; SPI Data Register Bit 3
                                 .equ	SPDR04	= 4 ; SPI Data Register Bit 4
                                 .equ	SPDR05	= 5 ; SPI Data Register Bit 5
                                 .equ	SPDR06	= 6 ; SPI Data Register Bit 6
                                 .equ	SPDR07	= 7 ; SPI Data Register Bit 7
                                 
                                 ; SPSR0 - SPI Status Register
                                 .equ	SPI2X	= 0 ; Double SPI Speed Bit
                                 .equ	WCOL	= 6 ; Write Collision Flag
                                 .equ	SPIF	= 7 ; SPI Interrupt Flag
                                 
                                 ; SPCR0 - SPI Control Register
                                 .equ	SPR0	= 0 ; SPI Clock Rate Selects
                                 .equ	SPR1	= 1 ; SPI Clock Rate Selects
                                 .equ	CPHA	= 2 ; Clock Phase
                                 .equ	CPOL	= 3 ; Clock polarity
                                 .equ	MSTR	= 4 ; Master/Slave Select
                                 .equ	DORD	= 5 ; Data Order
                                 .equ	SPE	= 6 ; SPI Enable
                                 .equ	SPIE	= 7 ; SPI Interrupt Enable
                                 
                                 
                                 ; ***** SPI1 *****************
                                 ; SPDR1 - SPI Data Register
                                 .equ	SPDR10	= 0 ; SPI Data Register Bit 0
                                 .equ	SPDR11	= 1 ; SPI Data Register Bit 1
                                 .equ	SPDR12	= 2 ; SPI Data Register Bit 2
                                 .equ	SPDR13	= 3 ; SPI Data Register Bit 3
                                 .equ	SPDR14	= 4 ; SPI Data Register Bit 4
                                 .equ	SPDR15	= 5 ; SPI Data Register Bit 5
                                 .equ	SPDR16	= 6 ; SPI Data Register Bit 6
                                 .equ	SPDR17	= 7 ; SPI Data Register Bit 7
                                 
                                 ; SPSR1 - SPI Status Register
                                 .equ	SPI2X1	= 0 ; Double SPI Speed Bit
                                 .equ	WCOL1	= 6 ; Write Collision Flag
                                 .equ	SPIF1	= 7 ; SPI Interrupt Flag
                                 
                                 ; SPCR1 - SPI Control Register
                                 .equ	SPR10	= 0 ; SPI Clock Rate Selects
                                 .equ	SPR11	= 1 ; SPI Clock Rate Selects
                                 .equ	CPHA1	= 2 ; Clock Phase
                                 .equ	CPOL1	= 3 ; Clock polarity
                                 .equ	MSTR1	= 4 ; Master/Slave Select
                                 .equ	DORD1	= 5 ; Data Order
                                 .equ	SPE1	= 6 ; SPI Enable
                                 .equ	SPIE1	= 7 ; SPI Interrupt Enable
                                 
                                 
                                 ; ***** WDT *****************
                                 ; WDTCSR - Watchdog Timer Control Register
                                 .equ	WDE	= 3 ; Watch Dog Enable
                                 .equ	WDCE	= 4 ; Watchdog Change Enable
                                 .equ	WDP0	= 0 ; Watchdog Timer Prescaler Bits
                                 .equ	WDP1	= 1 ; Watchdog Timer Prescaler Bits
                                 .equ	WDP2	= 2 ; Watchdog Timer Prescaler Bits
                                 .equ	WDP3	= 5 ; Watchdog Timer Prescaler Bits
                                 .equ	WDIE	= 6 ; Watchdog Timeout Interrupt Enable
                                 .equ	WDIF	= 7 ; Watchdog Timeout Interrupt Flag
                                 
                                 
                                 ; ***** PTC *****************
                                 ; ***** CPU *****************
                                 ; PRR0 - Power Reduction Register 0
                                 .equ	PRADC	= 0 ; Power Reduction ADC
                                 .equ	PRUSART0	= 1 ; Power Reduction USART0
                                 .equ	PRSPI0	= 2 ; Power Reduction Serial Peripheral Interface 1
                                 .equ	PRTIM1	= 3 ; Power Reduction Timer/Counter1
                                 .equ	PRUSART1	= 4 ; Power Reduction USART1
                                 .equ	PRTIM0	= 5 ; Power Reduction Timer/Counter0
                                 .equ	PRTIM2	= 6 ; Power Reduction Timer/Counter2
                                 .equ	PRTWI0	= 7 ; Power Reduction TWI0
                                 
                                 ; PRR1 - Power Reduction Register 1
                                 .equ	PRTIM3	= 0 ; Power Reduction Timer/Counter3
                                 .equ	PRSPI1	= 2 ; Power Reduction Serial Peripheral Interface 1
                                 .equ	PRTIM4	= 3 ; Power Reduction Timer/Counter4
                                 .equ	PRPTC	= 4 ; Power Reduction Peripheral Touch Controller
                                 .equ	PRTWI1	= 5 ; Power Reduction TWI1
                                 
                                 ; OSCCAL - Oscillator Calibration Value
                                 .equ	OSCCAL0	= 0 ; Oscillator Calibration
                                 .equ	OSCCAL1	= 1 ; Oscillator Calibration
                                 .equ	OSCCAL2	= 2 ; Oscillator Calibration
                                 .equ	OSCCAL3	= 3 ; Oscillator Calibration
                                 .equ	OSCCAL4	= 4 ; Oscillator Calibration
                                 .equ	OSCCAL5	= 5 ; Oscillator Calibration
                                 .equ	OSCCAL6	= 6 ; Oscillator Calibration
                                 .equ	OSCCAL7	= 7 ; Oscillator Calibration
                                 
                                 ; CLKPR - Clock Prescale Register
                                 .equ	CLKPS0	= 0 ; Clock Prescaler Select Bits
                                 .equ	CLKPS1	= 1 ; Clock Prescaler Select Bits
                                 .equ	CLKPS2	= 2 ; Clock Prescaler Select Bits
                                 .equ	CLKPS3	= 3 ; Clock Prescaler Select Bits
                                 .equ	CLKPCE	= 7 ; Clock Prescaler Change Enable
                                 
                                 ; SREG - Status Register
                                 .equ	SREG_C	= 0 ; Carry Flag
                                 .equ	SREG_Z	= 1 ; Zero Flag
                                 .equ	SREG_N	= 2 ; Negative Flag
                                 .equ	SREG_V	= 3 ; Two's Complement Overflow Flag
                                 .equ	SREG_S	= 4 ; Sign Bit
                                 .equ	SREG_H	= 5 ; Half Carry Flag
                                 .equ	SREG_T	= 6 ; Bit Copy Storage
                                 .equ	SREG_I	= 7 ; Global Interrupt Enable
                                 
                                 ; SP - Stack Pointer
                                 .equ	SPH0	= 0 ; Stack Pointer High Bit 8
                                 .equ	SPH1	= 1 ; Stack Pointer High Bit 9
                                 .equ	SPH2	= 2 ; Stack Pointer High Bit 10
                                 .equ	SPH3	= 3 ; Stack Pointer High Bit 11
                                 
                                 .equ	SPL0	= 0 ; Stack Pointer Low Bit 0
                                 .equ	SPL1	= 1 ; Stack Pointer Low Bit 1
                                 .equ	SPL2	= 2 ; Stack Pointer Low Bit 2
                                 .equ	SPL3	= 3 ; Stack Pointer Low Bit 3
                                 .equ	SPL4	= 4 ; Stack Pointer Low Bit 4
                                 .equ	SPL5	= 5 ; Stack Pointer Low Bit 5
                                 .equ	SPL6	= 6 ; Stack Pointer Low Bit 6
                                 .equ	SPL7	= 7 ; Stack Pointer Low Bit 7
                                 
                                 ; SPMCSR - Store Program Memory Control and Status Register
                                 .equ	SPMEN	= 0 ; Store Program Memory
                                 .equ	PGERS	= 1 ; Page Erase
                                 .equ	PGWRT	= 2 ; Page Write
                                 .equ	BLBSET	= 3 ; Boot Lock Bit Set
                                 .equ	RWWSRE	= 4 ; Read-While-Write section read enable
                                 .equ	SIGRD	= 5 ; Signature Row Read
                                 .equ	RWWSB	= 6 ; Read-While-Write Section Busy
                                 .equ	SPMIE	= 7 ; SPM Interrupt Enable
                                 
                                 ; MCUCR - MCU Control Register
                                 .equ	IVCE	= 0 ; 
                                 .equ	IVSEL	= 1 ; 
                                 .equ	PUD	= 4 ; 
                                 .equ	BODSE	= 5 ; BOD Sleep Enable
                                 .equ	BODS	= 6 ; BOD Sleep
                                 
                                 ; MCUSR - MCU Status Register
                                 .equ	PORF	= 0 ; Power-on reset flag
                                 .equ	EXTRF	= 1 ; External Reset Flag
                                 .equ	BORF	= 2 ; Brown-out Reset Flag
                                 .equ	WDRF	= 3 ; Watchdog Reset Flag
                                 
                                 ; SMCR - Sleep Mode Control Register
                                 .equ	SE	= 0 ; Sleep Enable
                                 .equ	SM0	= 1 ; Sleep Mode Select Bits
                                 .equ	SM1	= 2 ; Sleep Mode Select Bits
                                 .equ	SM2	= 3 ; Sleep Mode Select Bits
                                 
                                 ; GPIOR2 - General Purpose I/O Register 2
                                 .equ	GPIOR20	= 0 ; General Purpose I/O Register 2 Bit 0
                                 .equ	GPIOR21	= 1 ; General Purpose I/O Register 2 Bit 1
                                 .equ	GPIOR22	= 2 ; General Purpose I/O Register 2 Bit 2
                                 .equ	GPIOR23	= 3 ; General Purpose I/O Register 2 Bit 3
                                 .equ	GPIOR24	= 4 ; General Purpose I/O Register 2 Bit 4
                                 .equ	GPIOR25	= 5 ; General Purpose I/O Register 2 Bit 5
                                 .equ	GPIOR26	= 6 ; General Purpose I/O Register 2 Bit 6
                                 .equ	GPIOR27	= 7 ; General Purpose I/O Register 2 Bit 7
                                 
                                 ; GPIOR1 - General Purpose I/O Register 1
                                 .equ	GPIOR10	= 0 ; General Purpose I/O Register 1 Bit 0
                                 .equ	GPIOR11	= 1 ; General Purpose I/O Register 1 Bit 1
                                 .equ	GPIOR12	= 2 ; General Purpose I/O Register 1 Bit 2
                                 .equ	GPIOR13	= 3 ; General Purpose I/O Register 1 Bit 3
                                 .equ	GPIOR14	= 4 ; General Purpose I/O Register 1 Bit 4
                                 .equ	GPIOR15	= 5 ; General Purpose I/O Register 1 Bit 5
                                 .equ	GPIOR16	= 6 ; General Purpose I/O Register 1 Bit 6
                                 .equ	GPIOR17	= 7 ; General Purpose I/O Register 1 Bit 7
                                 
                                 ; GPIOR0 - General Purpose I/O Register 0
                                 .equ	GPIOR00	= 0 ; General Purpose I/O Register 0 Bit 0
                                 .equ	GPIOR01	= 1 ; General Purpose I/O Register 0 Bit 1
                                 .equ	GPIOR02	= 2 ; General Purpose I/O Register 0 Bit 2
                                 .equ	GPIOR03	= 3 ; General Purpose I/O Register 0 Bit 3
                                 .equ	GPIOR04	= 4 ; General Purpose I/O Register 0 Bit 4
                                 .equ	GPIOR05	= 5 ; General Purpose I/O Register 0 Bit 5
                                 .equ	GPIOR06	= 6 ; General Purpose I/O Register 0 Bit 6
                                 .equ	GPIOR07	= 7 ; General Purpose I/O Register 0 Bit 7
                                 
                                 
                                 ; ***** EEPROM *****************
                                 ; EEAR - EEPROM Address Register Bytes
                                 .equ	EEARH0	= 0 ; EEPROM Address Register Bytes High Bit 8
                                 .equ	EEARH1	= 1 ; EEPROM Address Register Bytes High Bit 9
                                 
                                 .equ	EEARL0	= 0 ; EEPROM Address Register Bytes Low Bit 0
                                 .equ	EEARL1	= 1 ; EEPROM Address Register Bytes Low Bit 1
                                 .equ	EEARL2	= 2 ; EEPROM Address Register Bytes Low Bit 2
                                 .equ	EEARL3	= 3 ; EEPROM Address Register Bytes Low Bit 3
                                 .equ	EEARL4	= 4 ; EEPROM Address Register Bytes Low Bit 4
                                 .equ	EEARL5	= 5 ; EEPROM Address Register Bytes Low Bit 5
                                 .equ	EEARL6	= 6 ; EEPROM Address Register Bytes Low Bit 6
                                 .equ	EEARL7	= 7 ; EEPROM Address Register Bytes Low Bit 7
                                 
                                 ; EEDR - EEPROM Data Register
                                 .equ	EEDR0	= 0 ; EEPROM Data Register Bit 0
                                 .equ	EEDR1	= 1 ; EEPROM Data Register Bit 1
                                 .equ	EEDR2	= 2 ; EEPROM Data Register Bit 2
                                 .equ	EEDR3	= 3 ; EEPROM Data Register Bit 3
                                 .equ	EEDR4	= 4 ; EEPROM Data Register Bit 4
                                 .equ	EEDR5	= 5 ; EEPROM Data Register Bit 5
                                 .equ	EEDR6	= 6 ; EEPROM Data Register Bit 6
                                 .equ	EEDR7	= 7 ; EEPROM Data Register Bit 7
                                 
                                 ; EECR - EEPROM Control Register
                                 .equ	EERE	= 0 ; EEPROM Read Enable
                                 .equ	EEPE	= 1 ; EEPROM Write Enable
                                 .equ	EEMPE	= 2 ; EEPROM Master Write Enable
                                 .equ	EERIE	= 3 ; EEPROM Ready Interrupt Enable
                                 .equ	EEPM0	= 4 ; EEPROM Programming Mode Bits
                                 .equ	EEPM1	= 5 ; EEPROM Programming Mode Bits
                                 
                                 
                                 ; ***** FUSE *****************
                                 ; EXTENDED - 
                                 .equ	BODLEVEL0	= 0 ; Brown-out Detector trigger level
                                 .equ	BODLEVEL1	= 1 ; Brown-out Detector trigger level
                                 .equ	BODLEVEL2	= 2 ; Brown-out Detector trigger level
                                 .equ	CFD	= 3 ; Clock Failure Detection
                                 
                                 ; HIGH - 
                                 .equ	BOOTRST	= 0 ; Boot Reset vector Enabled
                                 .equ	BOOTSZ0	= 1 ; Select boot size
                                 .equ	BOOTSZ1	= 2 ; Select boot size
                                 .equ	EESAVE	= 3 ; Preserve EEPROM through the Chip Erase cycle
                                 .equ	WDTON	= 4 ; Watch-dog Timer always on
                                 .equ	SPIEN	= 5 ; Serial program downloading (SPI) enabled
                                 .equ	DWEN	= 6 ; Debug Wire enable
                                 .equ	RSTDISBL	= 7 ; Reset Disabled (Enable PC6 as i/o pin)
                                 
                                 ; LOW - 
                                 .equ	SUT_CKSEL0	= 0 ; Select Clock Source
                                 .equ	SUT_CKSEL1	= 1 ; Select Clock Source
                                 .equ	SUT_CKSEL2	= 2 ; Select Clock Source
                                 .equ	SUT_CKSEL3	= 3 ; Select Clock Source
                                 .equ	SUT_CKSEL4	= 4 ; Select Clock Source
                                 .equ	SUT_CKSEL5	= 5 ; Select Clock Source
                                 .equ	CKOUT	= 6 ; Clock output on PORTB0
                                 .equ	CKDIV8	= 7 ; Divide clock by 8 internally
                                 
                                 
                                 ; ***** LOCKBIT *****************
                                 ; LOCKBIT - 
                                 .equ	LB1	= 0 ; Memory Lock
                                 .equ	LB2	= 1 ; Memory Lock
                                 .equ	BLB01	= 2 ; Boot Loader Protection Mode
                                 .equ	BLB02	= 3 ; Boot Loader Protection Mode
                                 .equ	BLB11	= 4 ; Boot Loader Protection Mode
                                 .equ	BLB12	= 5 ; Boot Loader Protection Mode
                                 
                                 
                                 ; ***** CFD *****************
                                 ; XFDCSR - XOSC Failure Detection Control and Status Register
                                 .equ	XFDIE	= 0 ; Failure Detection Interrupt Enable
                                 .equ	XFDIF	= 1 ; Failure Detection Interrupt Flag
                                 
                                 ; ***** CPU REGISTER DEFINITIONS *****************************************
                                 .def	XH	= r27
                                 .def	XL	= r26
                                 .def	YH	= r29
                                 .def	YL	= r28
                                 .def	ZH	= r31
                                 .def	ZL	= r30
                                 
                                 ; ***** DATA MEMORY DECLARATIONS *****************************************
                                 .equ	FLASHSTART	= 0x0000 ; Note: Word address
                                 .equ	FLASHEND	= 0x3FFF ; Note: Word address
                                 .equ	FLASHPAGESIZE	= 0x0040 ; Note: Size in words
                                 
                                 .equ	BOOTSECTION1START	= 0x3F00 ; Note: Word address
                                 .equ	BOOTSECTION1END	= 0x3FFF ; Note: Word address
                                 .equ	BOOTSECTION1PAGESIZE	= 0x0040 ; Note: Size in words
                                 
                                 .equ	BOOTSECTION2START	= 0x3E00 ; Note: Word address
                                 .equ	BOOTSECTION2END	= 0x3FFF ; Note: Word address
                                 .equ	BOOTSECTION2PAGESIZE	= 0x0040 ; Note: Size in words
                                 
                                 .equ	BOOTSECTION3START	= 0x3C00 ; Note: Word address
                                 .equ	BOOTSECTION3END	= 0x3FFF ; Note: Word address
                                 .equ	BOOTSECTION3PAGESIZE	= 0x0040 ; Note: Size in words
                                 
                                 .equ	BOOTSECTION4START	= 0x3800 ; Note: Word address
                                 .equ	BOOTSECTION4END	= 0x3FFF ; Note: Word address
                                 .equ	BOOTSECTION4PAGESIZE	= 0x0040 ; Note: Size in words
                                 
                                 .equ	IOEND	= 0x00FF
                                 
                                 .equ	SRAM_START	= 0x0100
                                 .equ	SRAM_SIZE	= 2048
                                 .equ	RAMEND	= 0x08FF
                                 
                                 .equ	E2END	= 0x03FF
                                 .equ	EEPROMEND	= 0x03FF
                                 .equ	EEADRBITS	= 10
                                 
                                 .equ	XRAMEND	= 0x0000
                                 
                                 #pragma AVRPART MEMORY PROG_FLASH 32768
                                 #pragma AVRPART MEMORY INT_SRAM SIZE 2048
                                 #pragma AVRPART MEMORY INT_SRAM START_ADDR 0x100
                                 
                                 #pragma AVRPART MEMORY EEPROM 1024
                                 
                                 ; ***** BOOTLOADER DECLARATIONS ******************************************
                                 .equ	PAGESIZE	= 0x0040 ; Note: Size in words
                                 
                                 .equ	FIRSTBOOTSTART	= 0x3F00 ; Note: Word address
                                 .equ	FIRSTBOOTPAGESIZE	= 0x0040 ; Note: Size in words
                                 .equ	FIRSTBOOTEND	= 0x0000 ; Note: Word address
                                 
                                 .equ	SECONDBOOTSTART	= 0x3E00 ; Note: Word address
                                 .equ	SECONDBOOTPAGESIZE	= 0x0040 ; Note: Size in words
                                 .equ	SECONDBOOTEND	= 0x0000 ; Note: Word address
                                 
                                 .equ	THIRDBOOTSTART	= 0x3C00 ; Note: Word address
                                 .equ	THIRDBOOTPAGESIZE	= 0x0040 ; Note: Size in words
                                 .equ	THIRDBOOTEND	= 0x0000 ; Note: Word address
                                 
                                 .equ	FOURTHBOOTSTART	= 0x3800 ; Note: Word address
                                 .equ	FOURTHBOOTPAGESIZE	= 0x0040 ; Note: Size in words
                                 .equ	FOURTHBOOTEND	= 0x0000 ; Note: Word address
                                 
                                 .equ	 SMALLBOOTSTART	= FIRSTBOOTSTART ;
                                 .equ	 LARGEBOOTSTART	= FOURTHBOOTSTART ;
                                 
                                 
                                 ; ***** INTERRUPT VECTORS ************************************************
                                 .equ	INT0addr	 = 0x0002 ; External Interrupt Request 0
                                 .equ	INT1addr	 = 0x0004 ; External Interrupt Request 1
                                 .equ	PCINT0addr	 = 0x0006 ; Pin Change Interrupt Request 0
                                 .equ	PCINT1addr	 = 0x0008 ; Pin Change Interrupt Request 1
                                 .equ	PCINT2addr	 = 0x000A ; Pin Change Interrupt Request 2
                                 .equ	WDTaddr	 = 0x000C ; Watchdog Time-out Interrupt
                                 .equ	TIMER2_COMPAaddr	 = 0x000E ; Timer/Counter2 Compare Match A
                                 .equ	TIMER2_COMPBaddr	 = 0x0010 ; Timer/Counter2 Compare Match B
                                 .equ	TIMER2_OVFaddr	 = 0x0012 ; Timer/Counter2 Overflow
                                 .equ	TIMER1_CAPTaddr	 = 0x0014 ; Timer/Counter1 Capture Event
                                 .equ	TIMER1_COMPAaddr	 = 0x0016 ; Timer/Counter1 Compare Match A
                                 .equ	TIMER1_COMPBaddr	 = 0x0018 ; Timer/Counter1 Compare Match B
                                 .equ	TIMER1_OVFaddr	 = 0x001A ; Timer/Counter1 Overflow
                                 .equ	TIMER0_COMPAaddr	 = 0x001C ; TimerCounter0 Compare Match A
                                 .equ	TIMER0_COMPBaddr	 = 0x001E ; TimerCounter0 Compare Match B
                                 .equ	TIMER0_OVFaddr	 = 0x0020 ; Timer/Couner0 Overflow
                                 .equ	SPI0_STCaddr	 = 0x0022 ; SPI Serial Transfer Complete
                                 .equ	USART0_RXaddr	 = 0x0024 ; USART0 Rx Complete
                                 .equ	USART0_UDREaddr	 = 0x0026 ; USART0, Data Register Empty
                                 .equ	USART0_TXaddr	 = 0x0028 ; USART0 Tx Complete
                                 .equ	ADCaddr	 = 0x002A ; ADC Conversion Complete
                                 .equ	EE_READYaddr	 = 0x002C ; EEPROM Ready
                                 .equ	ANALOG_COMPaddr	 = 0x002E ; Analog Comparator
                                 .equ	TWI0addr	 = 0x0030 ; Two-wire Serial Interface
                                 .equ	SPM_Readyaddr	 = 0x0032 ; Store Program Memory Read
                                 .equ	USART0_STARTaddr	 = 0x0034 ; USART0 Start frame detection
                                 .equ	PCINT3addr	 = 0x0036 ; Pin Change Interrupt Request 3
                                 .equ	USART1_RXaddr	 = 0x0038 ; USART1 Rx Complete
                                 .equ	USART1_UDREaddr	 = 0x003A ; USART1, Data Register Empty
                                 .equ	USART1_TXaddr	 = 0x003C ; USART1 Tx Complete
                                 .equ	USART1_STARTaddr	 = 0x003E ; USART1 Start frame detection
                                 .equ	TIMER3_CAPTaddr	 = 0x0040 ; Timer/Counter3 Capture Event
                                 .equ	TIMER3_COMPAaddr	 = 0x0042 ; Timer/Counter3 Compare Match A
                                 .equ	TIMER3_COMPBaddr	 = 0x0044 ; Timer/Counter3 Compare Match B
                                 .equ	TIMER3_OVFaddr	 = 0x0046 ; Timer/Counter3 Overflow
                                 .equ	CFDaddr	 = 0x0048 ; Clock failure detection interrupt
                                 .equ	PTC_EOCaddr	 = 0x004A ; PTC End of conversion
                                 .equ	PTC_WCOMPaddr	 = 0x004C ; PTC Window comparator mode
                                 .equ	SPI1_STCaddr	 = 0x004E ; SPI1 Serial Transfer Complete
                                 .equ	TWI1addr	 = 0x0050 ; TWI Transfer Complete
                                 .equ	TIMER4_CAPTaddr	 = 0x0052 ; Timer/Counter4 Capture Event
                                 .equ	TIMER4_COMPAaddr	 = 0x0054 ; Timer/Counter4 Compare Match A
                                 .equ	TIMER4_COMPBaddr	 = 0x0056 ; Timer/Counter4 Compare Match B
                                 .equ	TIMER4_OVFaddr	 = 0x0058 ; Timer/Counter4 Overflow
                                 
                                 .equ	INT_VECTORS_SIZE	= 90 ; size in words
                                 
                                 #endif /* _M328PBDEF_INC_ */
                                 
                                 ; ***** END OF FILE ******************************************************
                                 
                                 
                                 
                                 
                                 ;  Lab2-assembly.asm
                                 ;  
                                 ;  Created: 2/14/2025 12:01:11 AM
                                 ;  Author : malon
                                 ;  
                                 
                                             .MACRO    U16_CP                ;  args - rdH,rdL,rrH,rrL compares rdH:rdL to rrH:rdL
                                             CP        @1    ,  @3     
                                             CPC       @0    ,  @2     
                                             .ENDMACRO
                                             .MACRO    U16_ADD               ;  args rdH,rdL,rrH,rrL adds rdH:rdL to rrH:rrL and stores in rdH:rdL
                                             ADD       @1    ,  @3     
                                             ADC       @0    ,  @2     
                                             .ENDMACRO
                                             .MACRO    U16_SUB               ;  args rdH,rdL,rrH,rrL subtracts rrH:rrL from rdH:rdL and stores in rdH:rdL
                                             SUB       @1    ,  @3     
                                             SBC       @0    ,  @2     
                                             .ENDMACRO
                                             .MACRO    U16_PUSH              ;  args - rrH,rrL pushes uint onto stack
                                             PUSH      @1    
                                             PUSH      @0    
                                             .ENDMACRO
                                             .MACRO    U16_POP               ;  args - rrH,rrL pops uint from the stack
                                             POP       @0    
                                             POP       @1    
                                             .ENDMACRO
                                 ;  Replace with your application code
                                             .LISTMAC 
                                             .EQU      CHAR_MAX=0xFF
                                             .CSEG    
                                             .ORG      0x0   
000000 2400                                  CLR       r0    
000001 2411                                  CLR       r1    
000002 2422                                  CLR       r2    
000003 2433                                  CLR       r3    
000004 2444                                  CLR       r4    
000005 2455                                  CLR       r5    
000006 2466                                  CLR       r6    
000007 2477                                  CLR       r7    
000008 2488                                  CLR       r8    
000009 2499                                  CLR       r9    
00000a 24aa                                  CLR       r10   
00000b 24bb                                  CLR       r11   
00000c 24cc                                  CLR       r12   
00000d 24dd                                  CLR       r13   
00000e 24ee                                  CLR       r14   
00000f 24ff                                  CLR       r15   
000010 2700                                  CLR       r16   
000011 2711                                  CLR       r17   
000012 2722                                  CLR       r18   
000013 2733                                  CLR       r19   
000014 2744                                  CLR       r20   
000015 2755                                  CLR       r21   
000016 2766                                  CLR       r22   
000017 2777                                  CLR       r23   
000018 2788                                  CLR       r24   
000019 2799                                  CLR       r25   
00001a 27aa                                  CLR       r26   
00001b 27bb                                  CLR       r27   
00001c 27cc                                  CLR       r28   
00001d 27dd                                  CLR       r29   
00001e 27ee                                  CLR       r30   
00001f 27ff                                  CLR       r31   
                                 
                                 USART_Init:
                                 ;  Set baud rate to UBRR0
000020 e000                                  LDI       r16   ,  0x0    
000021 9300 00c5                             STS       UBRR0H,  r16    
000023 e607                                  LDI       r16   ,  103          ;  49 for 20K baud, 103 for 9600, 12 for 76800
000024 9300 00c4                             STS       UBRR0L,  r16    
                                 ;  Enable receiver and transmitter
000026 e108                                  LDI       r16   ,  (1<<RXEN0)|(1<<TXEN0)
000027 9300 00c1                             STS       UCSR0B,  r16    
                                 ;  Set frame format: 8data, 1stop bit
000029 e006                                  LDI       r16   ,  (0<<USBS0)|(3<<UCSZ00)
00002a 9300 00c2                             STS       UCSR0C,  r16    
                                 
00002c d000                      start:      RCALL     next                  ;  reserve first 2 bytes on stack for storing the test count
00002d d076                      next:       RCALL     getTestCount
00002e d07a                                  RCALL     testLoop
00002f 940c 002f                 end:        JMP       end   
                                 
000031 d0d7                      qSortTest:  RCALL     getData ; load new dataset from host PC
000032 e0a0                                  LDI       XL    ,  0x00   
000033 e0b1                                  LDI       XH    ,  0x01   
000034 902d                                  LD        r2    ,  X+     
000035 903d                                  LD        r3    ,  X+           ;  set X pointer to array start address, and r3:r2 to array length for quicksort test
000036 d0f1                      			rcall sendACK ; start timer on host PC	
000037 d002                                  RCALL     quickSort
000038 d0ec                                  RCALL     testComplete ; stop timer on host PC
000039 9508                                  RET      
                                 
00003a e001                      quickSort:  LDI       r16   ,  0x1    
00003b 2711                                  CLR       r17                   ;  use r17:r16 for a constant uint 0x0001
                                +
00003c 1502                     +CP r16 , r2
00003d 0513                     +CPC r17 , r3
                                             U16_CP    r17   ,  r16    ,  r3     ,  r2      ;  base case - break if length is 1 or 0
00003e f4cc                                  BRGE      qSortR
00003f d019                                  RCALL     part                  ;  after partitioning, the ending address of the pivot is stored in the Y pointer
                                +
000040 93cf                     +PUSH YL
000041 93df                     +PUSH YH
                                             U16_PUSH  YH    ,  YL           ;  store pivot location on stack
                                +
000042 1bca                     +SUB YL , XL
000043 0bdb                     +SBC YH , XH
                                             U16_SUB   YH    ,  YL     ,  XH     ,  XL      ;  calculate lower array size in bytes
000044 95d6                                  LSR       YH                    ;  This number is gaurenteed to be even
000045 95c7                                  ROR       YL                    ;  divide by 2 to get number of elements, ror is lsr w/ carry bit
                                +
000046 1a2c                     +SUB r2 , YL
000047 0a3d                     +SBC r3 , YH
                                             U16_SUB   r3    ,  r2     ,  YH     ,  YL      ;  calculate number of elements in upper half, including pivot
                                +
000048 1a20                     +SUB r2 , r16
000049 0a31                     +SBC r3 , r17
                                             U16_SUB   r3    ,  r2     ,  r17    ,  r16     ;  Y=Y-1, get rid of the pivot
                                +
00004a 922f                     +PUSH r2
00004b 923f                     +PUSH r3
                                             U16_PUSH  r3    ,  r2           ;  store upper array size on stack
00004c 2e3d                                  MOV       r3    ,  YH     
00004d 2e2c                                  MOV       r2    ,  YL           ;  move array length into r3:r2 for next call to quicksort
00004e dfeb                                  RCALL     quickSort             ;  lower half, X is equivalant for this call, r3:r2 holds new length
                                +
00004f 903f                     +POP r3
000050 902f                     +POP r2
                                             U16_POP   r3    ,  r2           ;  move upper array length into r3:r2 for next call to quicksort
                                +
000051 91bf                     +POP XH
000052 91af                     +POP XL
                                             U16_POP   XH    ,  XL           ;  restore X pointer to previous pivot
                                +
000053 0fa0                     +ADD XL , r16
000054 1fb1                     +ADC XH , r17
                                             U16_ADD   XH    ,  XL     ,  r17    ,  r16    
                                +
000055 0fa0                     +ADD XL , r16
000056 1fb1                     +ADC XH , r17
                                             U16_ADD   XH    ,  XL     ,  r17    ,  r16     ;  move Y to element after previous pivot (lower byte of first element in upper half array)
000057 dfe2                                  RCALL     quickSort             ;  Upper half, X is at the element after previous pivot, r3:r2 holds upper half length
                                 
000058 9508                      qSortR:     RET      
                                 
                                 ;  Array start address is X (array start and pivot are the same element), array length stored at r3:r2
000059 2e0a                      part:       MOV       r0    ,  XL     
00005a 2e1b                                  MOV       r1    ,  XH           ;  write down pivot address in r1:r0
00005b 2fca                                  MOV       YL    ,  XL     
00005c 2fdb                                  MOV       YH    ,  XH           ;  set y pointer to first (non-pivot) value in array
00005d 904d                                  LD        r4    ,  X+     
00005e 905d                                  LD        r5    ,  X+           ;  load the pivot into r5:r4
00005f 2711                                  CLR       r17   
000060 e001                                  LDI       r16   ,  0x1          ;  use r17:r16 to increment loop counter
000061 2477                                  CLR       r7    
000062 2e60                                  MOV       r6    ,  r16          ;  use r7:r6 for loop counter, start at 1
                                +
000063 1462                     +CP r6 , r2
000064 0473                     +CPC r7 , r3
                                 partL1:     U16_CP    r7    ,  r6     ,  r3     ,  r2      ;  stop loop when counter == r3:r2 (array length)
000065 f061                                  BREQ      partR 
000066 90cd                                  LD        r12   ,  X+     
000067 90dd                                  LD        r13   ,  X+           ;  load the current value into r13:r12
                                +
000068 14c4                     +CP r12 , r4
000069 04d5                     +CPC r13 , r5
                                             U16_CP    r13   ,  r12    ,  r5     ,  r4      ;  compare value to pivot
00006a f010                                  BRLO      partL2
00006b 940c 006e                             JMP       partL3                ;  don't swap if value>pivot
00006d d01b                      partL2:     RCALL     qSwap                 ;  swap the pivot and value if value is less than pivot
                                +
00006e 0e60                     +ADD r6 , r16
00006f 1e71                     +ADC r7 , r17
                                 partL3:     U16_ADD   r7    ,  r6     ,  r17    ,  r16     ;  increment loop counter
000070 940c 0063                             JMP       partL1
000072 d001                      partR:      RCALL     qSwapPivot            ;  swap *Y and pivot
000073 9508                                  RET      
                                 
000074 90e9                      qSwapPivot: LD        r14   ,  Y+     
000075 90f9                                  LD        r15   ,  Y+           ;  store value to be swapped in r15:r14
                                +
000076 1bc0                     +SUB YL , r16
000077 0bd1                     +SBC YH , r17
                                             U16_SUB   YH    ,  YL     ,  r17    ,  r16    
                                +
000078 1bc0                     +SUB YL , r16
000079 0bd1                     +SBC YH , r17
                                             U16_SUB   YH    ,  YL     ,  r17    ,  r16     ;  send Y pointer back to address of value to be swapped
00007a 2da0                                  MOV       XL    ,  r0     
00007b 2db1                                  MOV       XH    ,  r1           ;  restore X to pivot location
00007c 92ed                                  ST        X+    ,  r14    
00007d 92fd                                  ST        X+    ,  r15          ;  store *Y at original pivot location
00007e 9249                                  ST        Y+    ,  r4     
00007f 9259                                  ST        Y+    ,  r5           ;  store pivot at address of Y
                                +
000080 1bc0                     +SUB YL , r16
000081 0bd1                     +SBC YH , r17
                                             U16_SUB   YH    ,  YL     ,  r17    ,  r16    
                                +
000082 1bc0                     +SUB YL , r16
000083 0bd1                     +SBC YH , r17
                                             U16_SUB   YH    ,  YL     ,  r17    ,  r16     ;  send Y pointer back to address of value to be swapped
                                +
000084 1ba0                     +SUB XL , r16
000085 0bb1                     +SBC XH , r17
                                             U16_SUB   XH    ,  XL     ,  r17    ,  r16    
                                +
000086 1ba0                     +SUB XL , r16
000087 0bb1                     +SBC XH , r17
                                             U16_SUB   XH    ,  XL     ,  r17    ,  r16     ;  send X pointer back to original array start addr, used for calculating upper/lower half length in qsort
000088 9508                                  RET      
                                 ;  swaps values at (Y+1) and X, does not change X, Y=(Y+1)
000089 90fe                      qSwap:      LD        r15   ,  -X     
00008a 90fe                                  LD        r15   ,  -X           ;  retract X back to the address of the value to be swapped
                                +
00008b 0fc0                     +ADD YL , r16
00008c 1fd1                     +ADC YH , r17
                                             U16_ADD   YH    ,  YL     ,  r17    ,  r16    
                                +
00008d 0fc0                     +ADD YL , r16
00008e 1fd1                     +ADC YH , r17
                                             U16_ADD   YH    ,  YL     ,  r17    ,  r16     ;  increment Y pointer
00008f 90e9                                  LD        r14   ,  Y+     
000090 90f9                                  LD        r15   ,  Y+           ;  load value to be swapped from Y pointer into r15:r14
                                +
000091 1bc0                     +SUB YL , r16
000092 0bd1                     +SBC YH , r17
                                             U16_SUB   YH    ,  YL     ,  r17    ,  r16    
                                +
000093 1bc0                     +SUB YL , r16
000094 0bd1                     +SBC YH , r17
                                             U16_SUB   YH    ,  YL     ,  r17    ,  r16     ;  send Y pointer back to address of value to be swapped
000095 912d                                  LD        r18   ,  X+     
000096 913d                                  LD        r19   ,  X+           ;  load other value to be swapped into r19:r18
                                +
000097 1ba0                     +SUB XL , r16
000098 0bb1                     +SBC XH , r17
                                             U16_SUB   XH    ,  XL     ,  r17    ,  r16    
                                +
000099 1ba0                     +SUB XL , r16
00009a 0bb1                     +SBC XH , r17
                                             U16_SUB   XH    ,  XL     ,  r17    ,  r16     ;  decrement X pointer to original location
00009b 92ed                                  ST        X+    ,  r14    
00009c 92fd                                  ST        X+    ,  r15          ;  store the *(Y+1) value at the original location of X
00009d 9329                                  ST        Y+    ,  r18    
00009e 9339                                  ST        Y+    ,  r19          ;  store the *X value at (Y+1)
                                +
00009f 1bc0                     +SUB YL , r16
0000a0 0bd1                     +SBC YH , r17
                                             U16_SUB   YH    ,  YL     ,  r17    ,  r16    
                                +
0000a1 1bc0                     +SUB YL , r16
0000a2 0bd1                     +SBC YH , r17
                                             U16_SUB   YH    ,  YL     ,  r17    ,  r16     ;  Y now addresses (Y+1) from the original Y
0000a3 9508                                  RET      
                                 
0000a4 d083                      getTestCount: rcall sendACK
0000a5 efae                      LDI       XL    ,  0xFE   
0000a6 e0b8                                  LDI       XH    ,  0x08         ;  set X to last SRAM location
0000a7 d073                                  RCALL     uint16_Rx             ;  get and store test count in last SRAM location
0000a8 9508                                  RET      
                                 
0000a9 efae                      testLoop:LDI       XL    ,  0xFE   
0000aa e0b8                                  LDI       XH    ,  0x08   ;set X pointer to the number of tests to run
0000ab 2711                                  CLR       r17   
0000ac e001                                  LDI       r16   ,  0x1          ;  use r17:r16 to increment loop counter
0000ad 918d                                  LD        r24    ,  X+     
0000ae 919c                                  LD        r25    ,  X            ;  load test count into r25:r24, use for loop stop condition
0000af 2777                                  CLR       r23   
0000b0 2766                                  CLR       r22                   ;  use r23:r22 for loop counter
                                +
0000b1 1768                     +CP r22 , r24
0000b2 0779                     +CPC r23 , r25
                                 testL1:U16_CP    r23   ,  r22    ,  r25     ,  r24     
0000b3 f039                                  BREQ      testR
0000b4 d007                                  RCALL     bSortTest; change this call from bSortTest/qSortTest
0000b5 2711                                  CLR       r17   
0000b6 e001                                  LDI       r16   ,  0x1          ;  use r17:r16 to increment loop counter
                                +
0000b7 0f60                     +ADD r22 , r16
0000b8 1f71                     +ADC r23 , r17
                                             U16_ADD   r23   ,  r22    ,  r17    ,  r16     ;  increment loop counter
0000b9 940c 00b1                             JMP       testL1
0000bb 9508                      testR: RET      
                                 
                                 ;  uses X and Y for indirection to data, Z for accumulator
0000bc d04c                      bSortTest:  RCALL     getData
0000bd d06a                      rcall sendACK
0000be d002                                  RCALL     bubbleSort
0000bf d065                                  RCALL     testComplete
0000c0 9508                                  RET      
                                 
0000c1 e0a0                      bubbleSort: LDI       XL    ,  0x0          ;  set X to location of n
0000c2 e0b1                                  LDI       XH    ,  0x1    
0000c3 e0c4                                  LDI       YL    ,  0x4    
0000c4 e0d1                                  LDI       YH    ,  0x1          ;  set Y to second data location
0000c5 27ee                                  CLR       ZL    
0000c6 27ff                                  CLR       ZH                    ;  set Z to 0
0000c7 900d                                  LD        r0    ,  X+     
0000c8 901d                                  LD        r1    ,  X+           ;  store the number of numbers (n) in r1:r0,X now points at low byte of first uint16
0000c9 2d20                                  MOV       r18   ,  r0     
0000ca 2d31                                  MOV       r19   ,  r1           ;  use r19:r18 for outer loop end condition check
0000cb 902e                                  LD        r2    ,  -X     
0000cc 902e                                  LD        r2    ,  -X           ;  decrement X to addr of last data uint low byte
                                +
0000cd 0da0                     +ADD XL , r0
0000ce 1db1                     +ADC XH , r1
                                             U16_ADD   XH    ,  XL     ,  r1     ,  r0      ;  add n to X address, doing this twice because uint16 is 2 bytes large
                                +
0000cf 0da0                     +ADD XL , r0
0000d0 1db1                     +ADC XH , r1
                                             U16_ADD   XH    ,  XL     ,  r1     ,  r0      ;  add n to X address, this makes X point to the low byte of 1 of the last uint16
0000d1 2e0a                                  MOV       r0    ,  XL     
0000d2 2e1b                                  MOV       r1    ,  XH           ;  load the end of data address into r1:r0, this is stop condition for the loops
0000d3 e0a2                                  LDI       XL    ,  0x2    
0000d4 e0b1                                  LDI       XH    ,  0x1          ;  X points to first data uint16 low byte
0000d5 2422                                  CLR       r2    
0000d6 2433                                  CLR       r3    
0000d7 2444                                  CLR       r4    
0000d8 2455                                  CLR       r5    
0000d9 2711                                  CLR       r17   
0000da e001                                  LDI       r16   ,  0x1          ;  use r17:r16 to decrement the loop stop condition
                                +
0000db 1b20                     +SUB r18 , r16
0000dc 0b31                     +SBC r19 , r17
                                             U16_SUB   r19   ,  r18    ,  r17    ,  r16     ;  outer loop runs (n-1) times
0000dd 2466                                  CLR       r6    
0000de 2477                                  CLR       r7                    ;  use r7:r6 for outer loop iterator
                                +
0000df 1662                     +CP r6 , r18
0000e0 0673                     +CPC r7 , r19
                                 bubbleL1:   U16_CP    r7    ,  r6     ,  r19    ,  r18     ;  outer loop r7:r6 is iterator, starts at 0, r19:r18 is stop condition, breaks at i = (n-1)
0000e1 f0e9                                  BREQ      bubbleR               ;  stop sorting
                                +
0000e2 160a                     +CP r0 , XL
0000e3 061b                     +CPC r1 , XH
                                 bubbleL2:   U16_CP    r1    ,  r0     ,  XH     ,  XL     
0000e4 f071                                  BREQ      bubbleL2end
                                 
0000e5 2fea                                  MOV       ZL    ,  XL     
0000e6 2ffb                                  MOV       ZH    ,  XH           ;  Z reg used for swap, needs to point to orignial location of first uint low byte
0000e7 902d                                  LD        r2    ,  X+     
0000e8 903d                                  LD        r3    ,  X+           ;  Load first uint16 into r3:r2
0000e9 9049                                  LD        r4    ,  Y+     
0000ea 9059                                  LD        r5    ,  Y+           ;  Load second uint16 into r5:r4
                                +
0000eb 1424                     +CP r2 , r4
0000ec 0435                     +CPC r3 , r5
                                             U16_CP    r3    ,  r2     ,  r5     ,  r4      ;  compare the numbers
0000ed f410                                  BRSH      callSwap              ;  swap if *X >= *Y, brsh is breq for unsigned numbers
0000ee 940c 00e2                             JMP       bubbleL2
0000f0 d00f                      callSwap:   RCALL     bubbleSwap            ;  swap the numbers if number at X >= number at Y
0000f1 940c 00e2                             JMP       bubbleL2
0000f3 e0a2                      bubbleL2end:LDI       XL    ,  0x2    
0000f4 e0b1                                  LDI       XH    ,  0x1          ;  reset the X pointer to first uint low byte
0000f5 e0d1                                  LDI       YH    ,  0x1    
0000f6 e0c4                                  LDI       YL    ,  0x4          ;  reset the Y pointer to first uint low byte
                                +
0000f7 0e60                     +ADD r6 , r16
0000f8 1e71                     +ADC r7 , r17
                                             U16_ADD   r7    ,  r6     ,  r17    ,  r16     ;  increment loop counter
                                +
0000f9 1a00                     +SUB r0 , r16
0000fa 0a11                     +SBC r1 , r17
                                             U16_SUB   r1    ,  r0     ,  r17    ,  r16    
                                +
0000fb 1a00                     +SUB r0 , r16
0000fc 0a11                     +SBC r1 , r17
                                             U16_SUB   r1    ,  r0     ,  r17    ,  r16     ;  decrement the inner loop stop condition address by 2 bytes, skip the last element that was sorted in the next iteration
0000fd 940c 00df                             JMP       bubbleL1
0000ff 9508                      bubbleR:    RET      
                                 
                                 ;  working regs r21:r20, swaps uint16, assumes *Z is low byte of first uint,r3:r2 is first uint,r5:r4 is second uint
000100 2d42                      bubbleSwap: MOV       r20   ,  r2     
000101 2d53                                  MOV       r21   ,  r3           ;  store first uint in r17:r16
000102 2c35                                  MOV       r3    ,  r5     
000103 2c24                                  MOV       r2    ,  r4           ;  write second uint into first uint's registers
000104 9221                                  ST        Z+    ,  r2     
000105 9231                                  ST        Z+    ,  r3           ;  write second uint into first's sram location
000106 9341                                  ST        Z+    ,  r20    
000107 9351                                  ST        Z+    ,  r21          ;  write first uint into second's sram location
000108 9508                                  RET      
                                 
000109 e0a0                      getData:    LDI       r26   ,  0x00         ;  set X to start of sram
00010a e0b1                                  LDI       r27   ,  0x1    
00010b d01c                                  RCALL     sendACK
00010c d00e                                  RCALL     uint16_Rx             ;  get first uint16 at 0x100, this is the number of numbers (n) in the dataset
00010d 9000 0100                             LDS       r0    ,  0x100  
00010f 9010 0101                             LDS       r1    ,  0x101        ;  load n into r0,r1.
000111 27ee                                  CLR       ZL    
000112 27ff                                  CLR       ZH                    ;  use Z for accumulator, and r1:r0 for compare
                                +
000113 160e                     +CP r0 , ZL
000114 061f                     +CPC r1 , ZH
                                 getDataL1:  U16_CP    r1    ,  r0     ,  ZH     ,  ZL     
000115 f021                                  BREQ      getDataR
000116 d004                                  RCALL     uint16_Rx             ;  get the next dataset number
000117 9631                                  ADIW      ZL    ,  1      
000118 940c 0113                             JMP       getDataL1
00011a 9508                      getDataR:   RET      
                                 
00011b d016                      uint16_Rx:  RCALL     USART_Rx
00011c 931d                                  ST        X+    ,  r17    
00011d d014                                  RCALL     USART_Rx
00011e 931d                                  ST        X+    ,  r17    
00011f 9508                                  RET      
                                 
000120 910d                      uint16_Tx:  LD        r16   ,  X+     
000121 d009                                  RCALL     USART_Tx
000122 910d                                  LD        r16   ,  X+     
000123 d007                                  RCALL     USART_Tx
000124 9508                                  RET      
                                 
000125 ef0f                      testComplete:LDI       r16   ,  0xFF   
000126 d004                                  RCALL     USART_Tx
000127 9508                                  RET      
                                 
000128 ef00                      sendACK:    LDI       r16   ,  0xF0   
000129 d001                                  RCALL     USART_Tx
00012a 9508                                  RET      
                                 ;  Wait for empty transmit buffer
00012b 9110 00c0                 USART_Tx:   LDS       r17   ,  UCSR0A       ;  working: r17, sends byte in r16 , read uart status reg
00012d ff15                                  SBRS      r17   ,  UDRE0        ;  infinite loop untill I/0 is empty, checks if data empty bit is set in uart status reg
00012e cffc                                  RJMP      USART_Tx
                                 ;  Put data (r16) into buffer, sends the data
00012f 9300 00c6                             STS       UDR0  ,  r16    
000131 9508                                  RET      
                                 
000132 9110 00c0                 USART_Rx:   LDS       r17   ,  UCSR0A       ;  reads uart sreg into r17
000134 ff17                                  SBRS      r17   ,  RXC0   
000135 cffc                                  RJMP      USART_Rx
000136 9110 00c6                             LDS       r17   ,  UDR0   
000138 9508                                  RET      
000139 0064
00013a cac3
00013b ad38
00013c 79bc
00013d 8efc
00013e bd3a
00013f 8353
000140 cb69
000141 6367
000142 c455
000143 c009
000144 5ac5
000145 01d3
000146 40c0
000147 3f36
000148 ea9d
000149 9ef8
00014a ea9c
00014b 5115
00014c fe07
00014d ee58
00014e ca66
00014f 9aec
000150 3e12
000151 f60d
000152 7ba2
000153 0be6
000154 2f93
000155 2478
000156 9a4c
000157 81f7
000158 9004
000159 3e71
00015a a8f5
00015b bebd
00015c 1c09
00015d fdfb
00015e 4ad5
00015f 2489
000160 27fd
000161 a100
000162 3453
000163 ecd6
000164 60d7
000165 c1fd
000166 5d11
000167 7755
000168 0d0c
000169 51bc
00016a 78bb
00016b 3901
00016c e435
00016d 825a
00016e d9ae
00016f 7492
000170 5fea
000171 2d92
000172 965a
000173 bbd1
000174 4bc6
000175 2e41
000176 b6ba
000177 21fc
000178 f885
000179 6aa1
00017a 5fee
00017b db6b
00017c 752a
00017d 7133
00017e e26d
00017f f482
000180 97ee
000181 5109
000182 57d7
000183 fe0e
000184 d675
000185 afb6
000186 13da
000187 4dba
000188 2700
000189 e9eb
00018a 7b7d
00018b 5b31
00018c 3d11
00018d 8cf2
00018e ef2e
00018f 8a37
000190 f7c7
000191 f425
000192 eed3
000193 6482
000194 b08f
000195 d63d
000196 2285
000197 3e9e
000198 2b67
000199 9a36
00019a 88d0
00019b bf9e
00019c 7881
00019d 3b43                      table:      .DB       0x64  ,  0x0    ,  0xc3   ,  0xca   ,  0x38   ,  0xad   ,  0xbc   ,  0x79   ,  0xfc   ,  0x8e   ,  0x3a   ,  0xbd   ,  0x53   ,  0x83   ,  0x69   ,  0xcb   ,  0x67   ,  0x63   ,  0x55   ,  0xc4   ,  0x09   ,  0xc0   ,  0xc5   ,  0x5a00019e e0a0                         ,  0xd3   ,  0x01   ,  0xc0   ,  0x40   ,  0x36   ,  0x3f   ,  0x9d   ,  0xea   ,  0xf8   ,  0x9e   ,  0x9c   ,  0xea   ,  0x15   ,  0x51   ,  0x07   ,  0xfe   ,  0x58   ,  0xee   ,  0x66   ,  0xca   ,  0xec   ,  0x9a   ,  0x12   ,  0x3e   ,  0x0d   , 00019f e0b1                       0xf6   ,  0xa2   ,  0x7b   ,  0xe6   ,  0x0b   ,  0x93   ,  0x2f   ,  0x78   ,  0x24   ,  0x4c   ,  0x9a   ,  0xf7   ,  0x81   ,  0x04   ,  0x90   ,  0x71   ,  0x3e   ,  0xf5   ,  0xa8   ,  0xbd   ,  0xbe   ,  0x09   ,  0x1c   ,  0xfb   ,  0xfd   ,  0xd50001a0 e7e2                         ,  0x4a   ,  0x89   ,  0x24   ,  0xfd   ,  0x27   ,  0x00   ,  0xa1   ,  0x53   ,  0x34   ,  0xd6   ,  0xec   ,  0xd7   ,  0x60   ,  0xfd   ,  0xc1   ,  0x11   ,  0x5d   ,  0x55   ,  0x77   ,  0x0c   ,  0x0d   ,  0xbc   ,  0x51   ,  0xbb   ,  0x78   , 0001a1 e0f2                       0x01   ,  0x39   ,  0x35   ,  0xe4   ,  0x5a   ,  0x82   ,  0xae   ,  0xd9   ,  0x92   ,  0x74   ,  0xea   ,  0x5f   ,  0x92   ,  0x2d   ,  0x5a   ,  0x96   ,  0xd1   ,  0xbb   ,  0xc6   ,  0x4b   ,  0x41   ,  0x2e   ,  0xba   ,  0xb6   ,  0xfc   ,  0x210001a2 d00e                         ,  0x85   ,  0xf8   ,  0xa1   ,  0x6a   ,  0xee   ,  0x5f   ,  0x6b   ,  0xdb   ,  0x2a   ,  0x75   ,  0x33   ,  0x71   ,  0x6d   ,  0xe2   ,  0x82   ,  0xf4   ,  0xee   ,  0x97   ,  0x09   ,  0x51   ,  0xd7   ,  0x57   ,  0x0e   ,  0xfe   ,  0x75   , 0001a3 9000 0100                  0xd6   ,  0xb6   ,  0xaf   ,  0xda   ,  0x13   ,  0xba   ,  0x4d   ,  0x00   ,  0x27   ,  0xeb   ,  0xe9   ,  0x7d   ,  0x7b   ,  0x31   ,  0x5b   ,  0x11   ,  0x3d   ,  0xf2   ,  0x8c   ,  0x2e   ,  0xef   ,  0x37   ,  0x8a   ,  0xc7   ,  0xf7   ,  0x250001a5 9010 0101                    ,  0xf4   ,  0xd3   ,  0xee   ,  0x82   ,  0x64   ,  0x8f   ,  0xb0   ,  0x3d   ,  0xd6   ,  0x85   ,  0x22   ,  0x9e   ,  0x3e   ,  0x67   ,  0x2b   ,  0x36   ,  0x9a   ,  0xd0   ,  0x88   ,  0x9e   ,  0xbf   ,  0x81   ,  0x78   ,  0x43   ,  0x3b   
0001a7 27cc                      getDataDebug:LDI       XL    ,  0x0    
0001a8 27dd                                  LDI       XH    ,  0x1    
                                +
0001a9 160c                     +CP r0 , YL
0001aa 061d                     +CPC r1 , YH
                                             LDS       r1    ,  0x101        ;  load n into r0,r1.
0001ab f021                                  CLR       YL    
0001ac d004                                  CLR       YH                    ;  use Y for accumulator, and r1:r0 for compare
0001ad 9621                      debugL1:    U16_CP    r1    ,  r0     ,  YH     ,  YL     
0001ae 940c 01a9                             BREQ      getDataDebugR
0001b0 9508                                  RCALL     getuint16Debug        ;  get the next dataset number
                                             ADIW      YL    ,  1      
0001b1 9105                                  JMP       debugL1
0001b2 930d                      getDataDebugR:RET      
0001b3 9105                      
0001b4 930d                      getuint16Debug:LPM       r16   ,  Z+     
0001b5 9508                                  ST        X+    ,  r16          ;  store n low byte
                                             LPM       r16   ,  Z+     


RESOURCE USE INFORMATION
------------------------

Notice:
The register and instruction counts are symbol table hit counts,
and hence implicitly used resources are not counted, eg, the
'lpm' instruction without operands implicitly uses r0 and z,
none of which are counted.

x,y,z are separate entities in the symbol table and are
counted separately from r26..r31 here.

.dseg memory usage only counts static data declared with .byte

"ATmega328PB" register use summary:
x  :  28 y  :  10 z  :   6 r0 :  15 r1 :  15 r2 :  17 r3 :  15 r4 :   8 
r5 :   8 r6 :   7 r7 :   7 r8 :   1 r9 :   1 r10:   1 r11:   1 r12:   3 
r13:   3 r14:   5 r15:   7 r16:  48 r17:  37 r18:   6 r19:   6 r20:   3 
r21:   3 r22:   4 r23:   4 r24:   3 r25:   3 r26:  25 r27:  25 r28:  22 
r29:  21 r30:   7 r31:   6 
Registers used: 35 out of 35 (100.0%)

"ATmega328PB" instruction use summary:
.lds  :   0 .sts  :   0 adc   :   9 add   :   9 adiw  :   2 and   :   0 
andi  :   0 asr   :   0 bclr  :   0 bld   :   0 brbc  :   0 brbs  :   0 
brcc  :   0 brcs  :   0 break :   0 breq  :   6 brge  :   1 brhc  :   0 
brhs  :   0 brid  :   0 brie  :   0 brlo  :   1 brlt  :   0 brmi  :   0 
brne  :   0 brpl  :   0 brsh  :   1 brtc  :   0 brts  :   0 brvc  :   0 
brvs  :   0 bset  :   0 bst   :   0 call  :   0 cbi   :   0 cbr   :   0 
clc   :   0 clh   :   0 cli   :   0 cln   :   0 clr   :  52 cls   :   0 
clt   :   0 clv   :   0 clz   :   0 com   :   0 cp    :   9 cpc   :   9 
cpi   :   0 cpse  :   0 dec   :   0 eor   :   0 fmul  :   0 fmuls :   0 
fmulsu:   0 icall :   0 ijmp  :   0 in    :   0 inc   :   0 jmp   :   9 
ld    :  26 ldd   :   0 ldi   :  33 lds   :   7 lpm   :   2 lsl   :   0 
lsr   :   1 mov   :  19 movw  :   0 mul   :   0 muls  :   0 mulsu :   0 
neg   :   0 nop   :   0 or    :   0 ori   :   0 out   :   0 pop   :   4 
push  :   4 rcall :  31 ret   :  19 reti  :   0 rjmp  :   2 rol   :   0 
ror   :   1 sbc   :  18 sbci  :   0 sbi   :   0 sbic  :   0 sbis  :   0 
sbiw  :   0 sbr   :   0 sbrc  :   0 sbrs  :   2 sec   :   0 seh   :   0 
sei   :   0 sen   :   0 ser   :   0 ses   :   0 set   :   0 sev   :   0 
sez   :   0 sleep :   0 spm   :   0 st    :  16 std   :   0 sts   :   5 
sub   :  18 subi  :   0 swap  :   0 tst   :   0 wdr   :   0 
Instructions used: 28 out of 113 (24.8%)

"ATmega328PB" memory use summary [bytes]:
Segment   Begin    End      Code   Data   Used    Size   Use%
---------------------------------------------------------------
[.cseg] 0x000000 0x00036c    674    202    876   32768   2.7%
[.dseg] 0x000100 0x000100      0      0      0    2048   0.0%
[.eseg] 0x000000 0x000000      0      0      0    1024   0.0%

Assembly complete, 0 errors, 0 warnings
